
AirMonitringDevice.elf:     file format elf32-avr

Sections:
Idx Name          Size      VMA       LMA       File off  Algn
  0 .data         000001a0  00800200  000021ac  00002240  2**0
                  CONTENTS, ALLOC, LOAD, DATA
  1 .text         000021ac  00000000  00000000  00000094  2**1
                  CONTENTS, ALLOC, LOAD, READONLY, CODE
  2 .bss          00000148  008003a0  008003a0  000023e0  2**0
                  ALLOC
  3 .comment      0000005c  00000000  00000000  000023e0  2**0
                  CONTENTS, READONLY
  4 .note.gnu.avr.deviceinfo 00000040  00000000  00000000  0000243c  2**2
                  CONTENTS, READONLY
  5 .debug_aranges 000002a8  00000000  00000000  0000247c  2**0
                  CONTENTS, READONLY, DEBUGGING
  6 .debug_info   00002ff7  00000000  00000000  00002724  2**0
                  CONTENTS, READONLY, DEBUGGING
  7 .debug_abbrev 0000183d  00000000  00000000  0000571b  2**0
                  CONTENTS, READONLY, DEBUGGING
  8 .debug_line   000016e3  00000000  00000000  00006f58  2**0
                  CONTENTS, READONLY, DEBUGGING
  9 .debug_frame  000006bc  00000000  00000000  0000863c  2**2
                  CONTENTS, READONLY, DEBUGGING
 10 .debug_str    00000ac6  00000000  00000000  00008cf8  2**0
                  CONTENTS, READONLY, DEBUGGING
 11 .debug_loc    0000176e  00000000  00000000  000097be  2**0
                  CONTENTS, READONLY, DEBUGGING
 12 .debug_ranges 00000228  00000000  00000000  0000af2c  2**0
                  CONTENTS, READONLY, DEBUGGING

Disassembly of section .text:

00000000 <__vectors>:
       0:	3a c1       	rjmp	.+628    	; 0x276 <__ctors_end>
       2:	00 00       	nop
       4:	58 c1       	rjmp	.+688    	; 0x2b6 <__bad_interrupt>
       6:	00 00       	nop
       8:	56 c1       	rjmp	.+684    	; 0x2b6 <__bad_interrupt>
       a:	00 00       	nop
       c:	54 c1       	rjmp	.+680    	; 0x2b6 <__bad_interrupt>
       e:	00 00       	nop
      10:	52 c1       	rjmp	.+676    	; 0x2b6 <__bad_interrupt>
      12:	00 00       	nop
      14:	50 c1       	rjmp	.+672    	; 0x2b6 <__bad_interrupt>
      16:	00 00       	nop
      18:	4e c1       	rjmp	.+668    	; 0x2b6 <__bad_interrupt>
      1a:	00 00       	nop
      1c:	4c c1       	rjmp	.+664    	; 0x2b6 <__bad_interrupt>
      1e:	00 00       	nop
      20:	4a c1       	rjmp	.+660    	; 0x2b6 <__bad_interrupt>
      22:	00 00       	nop
      24:	48 c1       	rjmp	.+656    	; 0x2b6 <__bad_interrupt>
      26:	00 00       	nop
      28:	46 c1       	rjmp	.+652    	; 0x2b6 <__bad_interrupt>
      2a:	00 00       	nop
      2c:	44 c1       	rjmp	.+648    	; 0x2b6 <__bad_interrupt>
      2e:	00 00       	nop
      30:	42 c1       	rjmp	.+644    	; 0x2b6 <__bad_interrupt>
      32:	00 00       	nop
      34:	40 c1       	rjmp	.+640    	; 0x2b6 <__bad_interrupt>
      36:	00 00       	nop
      38:	3e c1       	rjmp	.+636    	; 0x2b6 <__bad_interrupt>
      3a:	00 00       	nop
      3c:	3c c1       	rjmp	.+632    	; 0x2b6 <__bad_interrupt>
      3e:	00 00       	nop
      40:	3a c1       	rjmp	.+628    	; 0x2b6 <__bad_interrupt>
      42:	00 00       	nop
      44:	38 c1       	rjmp	.+624    	; 0x2b6 <__bad_interrupt>
      46:	00 00       	nop
      48:	36 c1       	rjmp	.+620    	; 0x2b6 <__bad_interrupt>
      4a:	00 00       	nop
      4c:	34 c1       	rjmp	.+616    	; 0x2b6 <__bad_interrupt>
      4e:	00 00       	nop
      50:	32 c1       	rjmp	.+612    	; 0x2b6 <__bad_interrupt>
      52:	00 00       	nop
      54:	30 c1       	rjmp	.+608    	; 0x2b6 <__bad_interrupt>
      56:	00 00       	nop
      58:	2e c1       	rjmp	.+604    	; 0x2b6 <__bad_interrupt>
      5a:	00 00       	nop
      5c:	2c c1       	rjmp	.+600    	; 0x2b6 <__bad_interrupt>
      5e:	00 00       	nop
      60:	2a c1       	rjmp	.+596    	; 0x2b6 <__bad_interrupt>
      62:	00 00       	nop
      64:	28 c1       	rjmp	.+592    	; 0x2b6 <__bad_interrupt>
      66:	00 00       	nop
      68:	26 c1       	rjmp	.+588    	; 0x2b6 <__bad_interrupt>
      6a:	00 00       	nop
      6c:	24 c1       	rjmp	.+584    	; 0x2b6 <__bad_interrupt>
      6e:	00 00       	nop
      70:	22 c1       	rjmp	.+580    	; 0x2b6 <__bad_interrupt>
      72:	00 00       	nop
      74:	20 c1       	rjmp	.+576    	; 0x2b6 <__bad_interrupt>
      76:	00 00       	nop
      78:	1e c1       	rjmp	.+572    	; 0x2b6 <__bad_interrupt>
      7a:	00 00       	nop
      7c:	1c c1       	rjmp	.+568    	; 0x2b6 <__bad_interrupt>
      7e:	00 00       	nop
      80:	1a c1       	rjmp	.+564    	; 0x2b6 <__bad_interrupt>
      82:	00 00       	nop
      84:	18 c1       	rjmp	.+560    	; 0x2b6 <__bad_interrupt>
      86:	00 00       	nop
      88:	16 c1       	rjmp	.+556    	; 0x2b6 <__bad_interrupt>
      8a:	00 00       	nop
      8c:	14 c1       	rjmp	.+552    	; 0x2b6 <__bad_interrupt>
      8e:	00 00       	nop
      90:	12 c1       	rjmp	.+548    	; 0x2b6 <__bad_interrupt>
      92:	00 00       	nop
      94:	10 c1       	rjmp	.+544    	; 0x2b6 <__bad_interrupt>
      96:	00 00       	nop
      98:	0e c1       	rjmp	.+540    	; 0x2b6 <__bad_interrupt>
      9a:	00 00       	nop
      9c:	0c c1       	rjmp	.+536    	; 0x2b6 <__bad_interrupt>
      9e:	00 00       	nop
      a0:	0a c1       	rjmp	.+532    	; 0x2b6 <__bad_interrupt>
      a2:	00 00       	nop
      a4:	08 c1       	rjmp	.+528    	; 0x2b6 <__bad_interrupt>
      a6:	00 00       	nop
      a8:	06 c1       	rjmp	.+524    	; 0x2b6 <__bad_interrupt>
      aa:	00 00       	nop
      ac:	04 c1       	rjmp	.+520    	; 0x2b6 <__bad_interrupt>
      ae:	00 00       	nop
      b0:	02 c1       	rjmp	.+516    	; 0x2b6 <__bad_interrupt>
      b2:	00 00       	nop
      b4:	00 c1       	rjmp	.+512    	; 0x2b6 <__bad_interrupt>
      b6:	00 00       	nop
      b8:	fe c0       	rjmp	.+508    	; 0x2b6 <__bad_interrupt>
      ba:	00 00       	nop
      bc:	fc c0       	rjmp	.+504    	; 0x2b6 <__bad_interrupt>
      be:	00 00       	nop
      c0:	fa c0       	rjmp	.+500    	; 0x2b6 <__bad_interrupt>
      c2:	00 00       	nop
      c4:	f8 c0       	rjmp	.+496    	; 0x2b6 <__bad_interrupt>
      c6:	00 00       	nop
      c8:	f6 c0       	rjmp	.+492    	; 0x2b6 <__bad_interrupt>
      ca:	00 00       	nop
      cc:	f4 c0       	rjmp	.+488    	; 0x2b6 <__bad_interrupt>
      ce:	00 00       	nop
      d0:	f2 c0       	rjmp	.+484    	; 0x2b6 <__bad_interrupt>
      d2:	00 00       	nop
      d4:	f0 c0       	rjmp	.+480    	; 0x2b6 <__bad_interrupt>
      d6:	00 00       	nop
      d8:	ee c0       	rjmp	.+476    	; 0x2b6 <__bad_interrupt>
      da:	00 00       	nop
      dc:	ec c0       	rjmp	.+472    	; 0x2b6 <__bad_interrupt>
      de:	00 00       	nop
      e0:	ea c0       	rjmp	.+468    	; 0x2b6 <__bad_interrupt>
      e2:	00 00       	nop
      e4:	62 06       	cpc	r6, r18
      e6:	52 06       	cpc	r5, r18
      e8:	65 06       	cpc	r6, r21
      ea:	55 06       	cpc	r5, r21
      ec:	58 06       	cpc	r5, r24
      ee:	5b 06       	cpc	r5, r27
      f0:	5e 06       	cpc	r5, r30
      f2:	07 63       	ori	r16, 0x37	; 55
      f4:	42 36       	cpi	r20, 0x62	; 98
      f6:	b7 9b       	sbis	0x16, 7	; 22
      f8:	d8 a7       	std	Y+40, r29	; 0x28
      fa:	1a 39       	cpi	r17, 0x9A	; 154
      fc:	68 56       	subi	r22, 0x68	; 104
      fe:	18 ae       	std	Y+56, r1	; 0x38
     100:	ba ab       	std	Y+50, r27	; 0x32
     102:	55 8c       	ldd	r5, Z+29	; 0x1d
     104:	1d 3c       	cpi	r17, 0xCD	; 205
     106:	b7 cc       	rjmp	.-1682   	; 0xfffffa76 <__eeprom_end+0xff7efa76>
     108:	57 63       	ori	r21, 0x37	; 55
     10a:	bd 6d       	ori	r27, 0xDD	; 221
     10c:	ed fd       	.word	0xfded	; ????
     10e:	75 3e       	cpi	r23, 0xE5	; 229
     110:	f6 17       	cp	r31, r22
     112:	72 31       	cpi	r23, 0x12	; 18
     114:	bf 00       	.word	0x00bf	; ????
     116:	00 00       	nop
     118:	80 3f       	cpi	r24, 0xF0	; 240
     11a:	08 00       	.word	0x0008	; ????
     11c:	00 00       	nop
     11e:	be 92       	st	-X, r11
     120:	24 49       	sbci	r18, 0x94	; 148
     122:	12 3e       	cpi	r17, 0xE2	; 226
     124:	ab aa       	std	Y+51, r10	; 0x33
     126:	aa 2a       	or	r10, r26
     128:	be cd       	rjmp	.-1156   	; 0xfffffca6 <__eeprom_end+0xff7efca6>
     12a:	cc cc       	rjmp	.-1640   	; 0xfffffac4 <__eeprom_end+0xff7efac4>
     12c:	4c 3e       	cpi	r20, 0xEC	; 236
     12e:	00 00       	nop
     130:	00 80       	ld	r0, Z
     132:	be ab       	std	Y+54, r27	; 0x36
     134:	aa aa       	std	Y+50, r10	; 0x32
     136:	aa 3e       	cpi	r26, 0xEA	; 234
     138:	00 00       	nop
     13a:	00 00       	nop
     13c:	bf 00       	.word	0x00bf	; ????
     13e:	00 00       	nop
     140:	80 3f       	cpi	r24, 0xF0	; 240
     142:	00 00       	nop
     144:	00 00       	nop
     146:	00 08       	sbc	r0, r0
     148:	41 78       	andi	r20, 0x81	; 129
     14a:	d3 bb       	out	0x13, r29	; 19
     14c:	43 87       	std	Z+11, r20	; 0x0b
     14e:	d1 13       	cpse	r29, r17
     150:	3d 19       	sub	r19, r13
     152:	0e 3c       	cpi	r16, 0xCE	; 206
     154:	c3 bd       	out	0x23, r28	; 35
     156:	42 82       	std	Z+2, r4	; 0x02
     158:	ad 2b       	or	r26, r29
     15a:	3e 68       	ori	r19, 0x8E	; 142
     15c:	ec 82       	std	Y+4, r14	; 0x04
     15e:	76 be       	out	0x36, r7	; 54
     160:	d9 8f       	std	Y+25, r29	; 0x19
     162:	e1 a9       	ldd	r30, Z+49	; 0x31
     164:	3e 4c       	sbci	r19, 0xCE	; 206
     166:	80 ef       	ldi	r24, 0xF0	; 240
     168:	ff be       	out	0x3f, r15	; 63
     16a:	01 c4       	rjmp	.+2050   	; 0x96e <MQResistanceCalculation+0xc>
     16c:	ff 7f       	andi	r31, 0xFF	; 255
     16e:	3f 00       	.word	0x003f	; ????
     170:	00 00       	nop
	...

00000174 <__trampolines_end>:
     174:	6e 61       	ori	r22, 0x1E	; 30
     176:	6e 00       	.word	0x006e	; ????

00000178 <__c.2332>:
     178:	69 6e 66 00 00 40 7a 10 f3 5a 00 a0 72 4e 18 09     inf..@z..Z..rN..
     188:	00 10 a5 d4 e8 00 00 e8 76 48 17 00 00 e4 0b 54     ........vH.....T
     198:	02 00 00 ca 9a 3b 00 00 00 e1 f5 05 00 00 80 96     .....;..........
     1a8:	98 00 00 00 40 42 0f 00 00 00 a0 86 01 00 00 00     ....@B..........
     1b8:	10 27 00 00 00 00 e8 03 00 00 00 00 64 00 00 00     .'..........d...
     1c8:	00 00 0a 00 00 00 00 00 01 00 00 00 00 00 2c 76     ..............,v
     1d8:	d8 88 dc 67 4f 08 23 df c1 df ae 59 e1 b1 b7 96     ...gO.#....Y....
     1e8:	e5 e3 e4 53 c6 3a e6 51 99 76 96 e8 e6 c2 84 26     ...S.:.Q.v.....&
     1f8:	eb 89 8c 9b 62 ed 40 7c 6f fc ef bc 9c 9f 40 f2     ....b.@|o.....@.
     208:	ba a5 6f a5 f4 90 05 5a 2a f7 5c 93 6b 6c f9 67     ..o....Z*.\.kl.g
     218:	6d c1 1b fc e0 e4 0d 47 fe f5 20 e6 b5 00 d0 ed     m......G.. .....
     228:	90 2e 03 00 94 35 77 05 00 80 84 1e 08 00 00 20     .....5w........ 
     238:	4e 0a 00 00 00 c8 0c 33 33 33 33 0f 98 6e 12 83     N......3333..n..
     248:	11 41 ef 8d 21 14 89 3b e6 55 16 cf fe e6 db 18     .A..!..;.U......
     258:	d1 84 4b 38 1b f7 7c 1d 90 1d a4 bb e4 24 20 32     ..K8..|......$ 2
     268:	84 72 5e 22 81 00 c9 f1 24 ec a1 e5 3d 27           .r^"....$...='

00000276 <__ctors_end>:
     276:	11 24       	eor	r1, r1
     278:	1f be       	out	0x3f, r1	; 63
     27a:	cf ef       	ldi	r28, 0xFF	; 255
     27c:	d1 e2       	ldi	r29, 0x21	; 33
     27e:	de bf       	out	0x3e, r29	; 62
     280:	cd bf       	out	0x3d, r28	; 61
     282:	00 e0       	ldi	r16, 0x00	; 0
     284:	0c bf       	out	0x3c, r16	; 60

00000286 <__do_copy_data>:
     286:	13 e0       	ldi	r17, 0x03	; 3
     288:	a0 e0       	ldi	r26, 0x00	; 0
     28a:	b2 e0       	ldi	r27, 0x02	; 2
     28c:	ec ea       	ldi	r30, 0xAC	; 172
     28e:	f1 e2       	ldi	r31, 0x21	; 33
     290:	00 e0       	ldi	r16, 0x00	; 0
     292:	0b bf       	out	0x3b, r16	; 59
     294:	02 c0       	rjmp	.+4      	; 0x29a <__do_copy_data+0x14>
     296:	07 90       	elpm	r0, Z+
     298:	0d 92       	st	X+, r0
     29a:	a0 3a       	cpi	r26, 0xA0	; 160
     29c:	b1 07       	cpc	r27, r17
     29e:	d9 f7       	brne	.-10     	; 0x296 <__do_copy_data+0x10>

000002a0 <__do_clear_bss>:
     2a0:	24 e0       	ldi	r18, 0x04	; 4
     2a2:	a0 ea       	ldi	r26, 0xA0	; 160
     2a4:	b3 e0       	ldi	r27, 0x03	; 3
     2a6:	01 c0       	rjmp	.+2      	; 0x2aa <.do_clear_bss_start>

000002a8 <.do_clear_bss_loop>:
     2a8:	1d 92       	st	X+, r1

000002aa <.do_clear_bss_start>:
     2aa:	a8 3e       	cpi	r26, 0xE8	; 232
     2ac:	b2 07       	cpc	r27, r18
     2ae:	e1 f7       	brne	.-8      	; 0x2a8 <.do_clear_bss_loop>
     2b0:	ff d5       	rcall	.+3070   	; 0xeb0 <main>
     2b2:	0c 94 d4 10 	jmp	0x21a8	; 0x21a8 <_exit>

000002b6 <__bad_interrupt>:
     2b6:	a4 ce       	rjmp	.-696    	; 0x0 <__vectors>

000002b8 <Init_ADC>:
#include "../UART/uart.h"

void Init_ADC()
{
	// PF pins are inputs (ADC7-ADC0 inputs)
	DDRF = 0;
     2b8:	10 ba       	out	0x10, r1	; 16
	// Internal 5 volt reference, ADLAR = 0, Input = ADC0 single ended (potentiometer)
	ADMUX = 0b01000000;
     2ba:	80 e4       	ldi	r24, 0x40	; 64
     2bc:	80 93 7c 00 	sts	0x007C, r24	; 0x80007c <__TEXT_REGION_LENGTH__+0x70007c>
	// ADC enable
	// ADC interrupt disabled
	// ADC prescaler = 128 (=> ADC clock = 16 MHz / 128 = 125 kHZ)
	ADCSRA = 0b10000111;
     2c0:	87 e8       	ldi	r24, 0x87	; 135
     2c2:	80 93 7a 00 	sts	0x007A, r24	; 0x80007a <__TEXT_REGION_LENGTH__+0x70007a>
     2c6:	08 95       	ret

000002c8 <AnalogRead>:
}

int AnalogRead(){
     2c8:	cf 93       	push	r28
     2ca:	df 93       	push	r29
	// Start new A/D conversion
	ADCSRA |= 0b01000000;
     2cc:	ea e7       	ldi	r30, 0x7A	; 122
     2ce:	f0 e0       	ldi	r31, 0x00	; 0
     2d0:	80 81       	ld	r24, Z
     2d2:	80 64       	ori	r24, 0x40	; 64
     2d4:	80 83       	st	Z, r24
	// Wait for A/D conversion ended
	while (ADCSRA & 0b01000000)
     2d6:	80 81       	ld	r24, Z
     2d8:	86 fd       	sbrc	r24, 6
     2da:	fd cf       	rjmp	.-6      	; 0x2d6 <AnalogRead+0xe>
	{}
	// Send ADC result to terminal
	int adcValue = ADCW;
     2dc:	c0 91 78 00 	lds	r28, 0x0078	; 0x800078 <__TEXT_REGION_LENGTH__+0x700078>
     2e0:	d0 91 79 00 	lds	r29, 0x0079	; 0x800079 <__TEXT_REGION_LENGTH__+0x700079>
	SendString("ADC value:");
     2e4:	8e e1       	ldi	r24, 0x1E	; 30
     2e6:	92 e0       	ldi	r25, 0x02	; 2
     2e8:	49 d5       	rcall	.+2706   	; 0xd7c <SendString>
	SendInteger(adcValue);
     2ea:	ce 01       	movw	r24, r28
     2ec:	55 d5       	rcall	.+2730   	; 0xd98 <SendInteger>
	SendString("\r\n");
     2ee:	89 e2       	ldi	r24, 0x29	; 41
     2f0:	92 e0       	ldi	r25, 0x02	; 2
     2f2:	44 d5       	rcall	.+2696   	; 0xd7c <SendString>
	return adcValue;
}
     2f4:	ce 01       	movw	r24, r28
     2f6:	df 91       	pop	r29
     2f8:	cf 91       	pop	r28
     2fa:	08 95       	ret

000002fc <initTimer>:
void enableDebugging() {
	debugFlag = true;
}

void disableDebugging() {
	debugFlag = false;
     2fc:	10 92 80 00 	sts	0x0080, r1	; 0x800080 <__TEXT_REGION_LENGTH__+0x700080>
     300:	e1 e8       	ldi	r30, 0x81	; 129
     302:	f0 e0       	ldi	r31, 0x00	; 0
     304:	88 e0       	ldi	r24, 0x08	; 8
     306:	80 83       	st	Z, r24
     308:	80 81       	ld	r24, Z
     30a:	85 60       	ori	r24, 0x05	; 5
     30c:	80 83       	st	Z, r24
     30e:	e8 e8       	ldi	r30, 0x88	; 136
     310:	f0 e0       	ldi	r31, 0x00	; 0
     312:	81 e1       	ldi	r24, 0x11	; 17
     314:	9a e7       	ldi	r25, 0x7A	; 122
     316:	91 83       	std	Z+1, r25	; 0x01
     318:	80 83       	st	Z, r24
     31a:	80 81       	ld	r24, Z
     31c:	91 81       	ldd	r25, Z+1	; 0x01
     31e:	01 97       	sbiw	r24, 0x01	; 1
     320:	90 93 85 00 	sts	0x0085, r25	; 0x800085 <__TEXT_REGION_LENGTH__+0x700085>
     324:	80 93 84 00 	sts	0x0084, r24	; 0x800084 <__TEXT_REGION_LENGTH__+0x700084>
     328:	08 95       	ret

0000032a <resetTimer>:
     32a:	86 b3       	in	r24, 0x16	; 22
     32c:	8e 70       	andi	r24, 0x0E	; 14
     32e:	86 bb       	out	0x16, r24	; 22
     330:	10 92 85 00 	sts	0x0085, r1	; 0x800085 <__TEXT_REGION_LENGTH__+0x700085>
     334:	10 92 84 00 	sts	0x0084, r1	; 0x800084 <__TEXT_REGION_LENGTH__+0x700084>
     338:	08 95       	ret

0000033a <isBusy>:
     33a:	80 91 e7 04 	lds	r24, 0x04E7	; 0x8004e7 <debugFlag>
     33e:	88 23       	and	r24, r24
     340:	71 f0       	breq	.+28     	; 0x35e <isBusy+0x24>
     342:	8c e2       	ldi	r24, 0x2C	; 44
     344:	92 e0       	ldi	r25, 0x02	; 2
     346:	1a d5       	rcall	.+2612   	; 0xd7c <SendString>
     348:	26 b3       	in	r18, 0x16	; 22
     34a:	81 e0       	ldi	r24, 0x01	; 1
     34c:	90 e0       	ldi	r25, 0x00	; 0
     34e:	22 23       	and	r18, r18
     350:	11 f0       	breq	.+4      	; 0x356 <isBusy+0x1c>
     352:	80 e0       	ldi	r24, 0x00	; 0
     354:	90 e0       	ldi	r25, 0x00	; 0
     356:	20 d5       	rcall	.+2624   	; 0xd98 <SendInteger>
     358:	8c e2       	ldi	r24, 0x2C	; 44
     35a:	93 e0       	ldi	r25, 0x03	; 3
     35c:	0f d5       	rcall	.+2590   	; 0xd7c <SendString>
     35e:	96 b3       	in	r25, 0x16	; 22
     360:	81 e0       	ldi	r24, 0x01	; 1
     362:	91 11       	cpse	r25, r1
     364:	80 e0       	ldi	r24, 0x00	; 0
     366:	08 95       	ret

00000368 <initAM2302>:
     368:	80 93 e7 04 	sts	0x04E7, r24	; 0x8004e7 <debugFlag>
     36c:	ea e0       	ldi	r30, 0x0A	; 10
     36e:	f1 e0       	ldi	r31, 0x01	; 1
     370:	80 81       	ld	r24, Z
     372:	87 7f       	andi	r24, 0xF7	; 247
     374:	80 83       	st	Z, r24
     376:	eb e0       	ldi	r30, 0x0B	; 11
     378:	f1 e0       	ldi	r31, 0x01	; 1
     37a:	80 81       	ld	r24, Z
     37c:	88 60       	ori	r24, 0x08	; 8
     37e:	80 83       	st	Z, r24
     380:	bd cf       	rjmp	.-134    	; 0x2fc <initTimer>
     382:	08 95       	ret

00000384 <sendStartSignal>:
}

void sendStartSignal(){
	if (debugFlag)
     384:	80 91 e7 04 	lds	r24, 0x04E7	; 0x8004e7 <debugFlag>
     388:	88 23       	and	r24, r24
     38a:	19 f0       	breq	.+6      	; 0x392 <sendStartSignal+0xe>
	{
		SendString("sending start signal\n\r");
     38c:	87 e3       	ldi	r24, 0x37	; 55
     38e:	92 e0       	ldi	r25, 0x02	; 2
     390:	f5 d4       	rcall	.+2538   	; 0xd7c <SendString>
	}
	DDRL &= ~(1<<DDL3);
     392:	aa e0       	ldi	r26, 0x0A	; 10
     394:	b1 e0       	ldi	r27, 0x01	; 1
     396:	8c 91       	ld	r24, X
     398:	87 7f       	andi	r24, 0xF7	; 247
     39a:	8c 93       	st	X, r24
	PORTL |= (1<<DDL3);
     39c:	eb e0       	ldi	r30, 0x0B	; 11
     39e:	f1 e0       	ldi	r31, 0x01	; 1
     3a0:	80 81       	ld	r24, Z
     3a2:	88 60       	ori	r24, 0x08	; 8
     3a4:	80 83       	st	Z, r24
	#else
		//round up by default
		__ticks_dc = (uint32_t)(ceil(fabs(__tmp)));
	#endif

	__builtin_avr_delay_cycles(__ticks_dc);
     3a6:	2f ef       	ldi	r18, 0xFF	; 255
     3a8:	83 ed       	ldi	r24, 0xD3	; 211
     3aa:	90 e3       	ldi	r25, 0x30	; 48
     3ac:	21 50       	subi	r18, 0x01	; 1
     3ae:	80 40       	sbci	r24, 0x00	; 0
     3b0:	90 40       	sbci	r25, 0x00	; 0
     3b2:	e1 f7       	brne	.-8      	; 0x3ac <sendStartSignal+0x28>
     3b4:	00 c0       	rjmp	.+0      	; 0x3b6 <sendStartSignal+0x32>
     3b6:	00 00       	nop
	_delay_ms(1000);
	DDRL |= (1<<DDL3);
     3b8:	8c 91       	ld	r24, X
     3ba:	88 60       	ori	r24, 0x08	; 8
     3bc:	8c 93       	st	X, r24
	PORTL &= ~(1<<DDL3);
     3be:	80 81       	ld	r24, Z
     3c0:	87 7f       	andi	r24, 0xF7	; 247
     3c2:	80 83       	st	Z, r24
	#else
		//round up by default
		__ticks_dc = (uint32_t)(ceil(fabs(__tmp)));
	#endif

	__builtin_avr_delay_cycles(__ticks_dc);
     3c4:	8f e2       	ldi	r24, 0x2F	; 47
     3c6:	91 e1       	ldi	r25, 0x11	; 17
     3c8:	01 97       	sbiw	r24, 0x01	; 1
     3ca:	f1 f7       	brne	.-4      	; 0x3c8 <sendStartSignal+0x44>
     3cc:	00 c0       	rjmp	.+0      	; 0x3ce <sendStartSignal+0x4a>
     3ce:	00 00       	nop
	_delay_us(1100);
	DDRL &= ~(1<<DDL3);
     3d0:	8c 91       	ld	r24, X
     3d2:	87 7f       	andi	r24, 0xF7	; 247
     3d4:	8c 93       	st	X, r24
	PORTL |= (1<<DDL3);
     3d6:	80 81       	ld	r24, Z
     3d8:	88 60       	ori	r24, 0x08	; 8
     3da:	80 83       	st	Z, r24
     3dc:	95 ed       	ldi	r25, 0xD5	; 213
     3de:	9a 95       	dec	r25
     3e0:	f1 f7       	brne	.-4      	; 0x3de <sendStartSignal+0x5a>
     3e2:	00 00       	nop
     3e4:	08 95       	ret

000003e6 <waitForSensorConfirmation>:
}

bool waitForSensorConfirmation(){
	// Før selve datasignalet trækker sensoren signalet lavt(80us) og der efter højt(80us)
	uint32_t count = 0;
	while ((PINL & (1<<PINL3)) == 0)
     3e6:	80 e0       	ldi	r24, 0x00	; 0
     3e8:	90 e0       	ldi	r25, 0x00	; 0
     3ea:	e9 e0       	ldi	r30, 0x09	; 9
     3ec:	f1 e0       	ldi	r31, 0x01	; 1
     3ee:	0a c0       	rjmp	.+20     	; 0x404 <__LOCK_REGION_LENGTH__+0x4>
     3f0:	01 96       	adiw	r24, 0x01	; 1
	{
		if (count++ >= MAX_WAIT)
     3f2:	81 38       	cpi	r24, 0x81	; 129
     3f4:	2e e3       	ldi	r18, 0x3E	; 62
     3f6:	92 07       	cpc	r25, r18
     3f8:	29 f4       	brne	.+10     	; 0x404 <__LOCK_REGION_LENGTH__+0x4>
		{
			SendString("Timeout - waiting for sensor initial low pulse\n\r");
     3fa:	8e e4       	ldi	r24, 0x4E	; 78
     3fc:	92 e0       	ldi	r25, 0x02	; 2
     3fe:	be d4       	rcall	.+2428   	; 0xd7c <SendString>
			return false;
     400:	80 e0       	ldi	r24, 0x00	; 0
     402:	08 95       	ret
}

bool waitForSensorConfirmation(){
	// Før selve datasignalet trækker sensoren signalet lavt(80us) og der efter højt(80us)
	uint32_t count = 0;
	while ((PINL & (1<<PINL3)) == 0)
     404:	20 81       	ld	r18, Z
     406:	23 ff       	sbrs	r18, 3
     408:	f3 cf       	rjmp	.-26     	; 0x3f0 <waitForSensorConfirmation+0xa>
     40a:	80 e0       	ldi	r24, 0x00	; 0
     40c:	90 e0       	ldi	r25, 0x00	; 0
			return false;
		}
		
	}
	count = 0;
	while ((PINL & (1<<PINL3)) != 0)
     40e:	e9 e0       	ldi	r30, 0x09	; 9
     410:	f1 e0       	ldi	r31, 0x01	; 1
     412:	0a c0       	rjmp	.+20     	; 0x428 <__LOCK_REGION_LENGTH__+0x28>
     414:	01 96       	adiw	r24, 0x01	; 1
	{
		if (count++ >= MAX_WAIT)
     416:	81 38       	cpi	r24, 0x81	; 129
     418:	2e e3       	ldi	r18, 0x3E	; 62
     41a:	92 07       	cpc	r25, r18
     41c:	29 f4       	brne	.+10     	; 0x428 <__LOCK_REGION_LENGTH__+0x28>
		{
			SendString("Timeout - waiting for sensor initial high pulse\n\r");
     41e:	8f e7       	ldi	r24, 0x7F	; 127
     420:	92 e0       	ldi	r25, 0x02	; 2
     422:	ac d4       	rcall	.+2392   	; 0xd7c <SendString>
			return false;
     424:	80 e0       	ldi	r24, 0x00	; 0
     426:	08 95       	ret
			return false;
		}
		
	}
	count = 0;
	while ((PINL & (1<<PINL3)) != 0)
     428:	20 81       	ld	r18, Z
     42a:	23 fd       	sbrc	r18, 3
     42c:	f3 cf       	rjmp	.-26     	; 0x414 <__LOCK_REGION_LENGTH__+0x14>
		{
			SendString("Timeout - waiting for sensor initial high pulse\n\r");
			return false;
		}
	}
	return true;
     42e:	81 e0       	ldi	r24, 0x01	; 1
}
     430:	08 95       	ret

00000432 <receiveData>:

uint32_t* receiveData() {
     432:	4f 92       	push	r4
     434:	5f 92       	push	r5
     436:	6f 92       	push	r6
     438:	7f 92       	push	r7
     43a:	8f 92       	push	r8
     43c:	9f 92       	push	r9
     43e:	af 92       	push	r10
     440:	bf 92       	push	r11
     442:	cf 92       	push	r12
     444:	df 92       	push	r13
     446:	ef 92       	push	r14
     448:	ff 92       	push	r15
     44a:	0f 93       	push	r16
     44c:	1f 93       	push	r17
     44e:	cf 93       	push	r28
     450:	df 93       	push	r29
     452:	05 ea       	ldi	r16, 0xA5	; 165
     454:	13 e0       	ldi	r17, 0x03	; 3
     456:	0f 2e       	mov	r0, r31
     458:	f5 ee       	ldi	r31, 0xE5	; 229
     45a:	8f 2e       	mov	r8, r31
     45c:	f4 e0       	ldi	r31, 0x04	; 4
     45e:	9f 2e       	mov	r9, r31
     460:	f0 2d       	mov	r31, r0
	//Der kommer 40 pulse, først en lav på ca. 50us og så en høj som viser
	//om det er et 1 eller 0 ved hjælp af længden (1 = ca.70us , 0 = ca.26-28us), der er altså 80 pladser
	//i data for at rumme både de lave signaler men også de høje data signaler.
	for (int i = 0; i<80; i+=2)
	{
		while ((PINL & (1<<PINL3)) == 0)
     462:	c9 e0       	ldi	r28, 0x09	; 9
     464:	d1 e0       	ldi	r29, 0x01	; 1
		{
			if (count++ >= MAX_WAIT)
			{
				data[i] =  -1;
     466:	cc 24       	eor	r12, r12
     468:	ca 94       	dec	r12
     46a:	dc 2c       	mov	r13, r12
     46c:	76 01       	movw	r14, r12
     46e:	42 c0       	rjmp	.+132    	; 0x4f4 <receiveData+0xc2>
	//i data for at rumme både de lave signaler men også de høje data signaler.
	for (int i = 0; i<80; i+=2)
	{
		while ((PINL & (1<<PINL3)) == 0)
		{
			if (count++ >= MAX_WAIT)
     470:	80 e8       	ldi	r24, 0x80	; 128
     472:	48 16       	cp	r4, r24
     474:	8e e3       	ldi	r24, 0x3E	; 62
     476:	58 06       	cpc	r5, r24
     478:	61 04       	cpc	r6, r1
     47a:	71 04       	cpc	r7, r1
     47c:	40 f0       	brcs	.+16     	; 0x48e <receiveData+0x5c>
			{
				data[i] =  -1;
     47e:	f8 01       	movw	r30, r16
     480:	c0 82       	st	Z, r12
     482:	d1 82       	std	Z+1, r13	; 0x01
     484:	e2 82       	std	Z+2, r14	; 0x02
     486:	f3 82       	std	Z+3, r15	; 0x03
				SendString("Read failure - timeout waiting for pulse\n\r");
     488:	81 eb       	ldi	r24, 0xB1	; 177
     48a:	92 e0       	ldi	r25, 0x02	; 2
     48c:	77 d4       	rcall	.+2286   	; 0xd7c <SendString>
     48e:	ff ef       	ldi	r31, 0xFF	; 255
     490:	4f 1a       	sub	r4, r31
     492:	5f 0a       	sbc	r5, r31
     494:	6f 0a       	sbc	r6, r31
     496:	7f 0a       	sbc	r7, r31
	//Der kommer 40 pulse, først en lav på ca. 50us og så en høj som viser
	//om det er et 1 eller 0 ved hjælp af længden (1 = ca.70us , 0 = ca.26-28us), der er altså 80 pladser
	//i data for at rumme både de lave signaler men også de høje data signaler.
	for (int i = 0; i<80; i+=2)
	{
		while ((PINL & (1<<PINL3)) == 0)
     498:	88 81       	ld	r24, Y
     49a:	83 ff       	sbrs	r24, 3
     49c:	e9 cf       	rjmp	.-46     	; 0x470 <receiveData+0x3e>
     49e:	58 01       	movw	r10, r16
				data[i] =  -1;
				SendString("Read failure - timeout waiting for pulse\n\r");
			}
			
		}
		data[i] = count;
     4a0:	f8 01       	movw	r30, r16
     4a2:	40 82       	st	Z, r4
     4a4:	51 82       	std	Z+1, r5	; 0x01
     4a6:	62 82       	std	Z+2, r6	; 0x02
     4a8:	73 82       	std	Z+3, r7	; 0x03
		count = 0;
		while ((PINL & (1<<PINL3)) != 0)
     4aa:	41 2c       	mov	r4, r1
     4ac:	51 2c       	mov	r5, r1
     4ae:	32 01       	movw	r6, r4
     4b0:	14 c0       	rjmp	.+40     	; 0x4da <receiveData+0xa8>
		{
			if (count++ >= MAX_WAIT)
     4b2:	f0 e8       	ldi	r31, 0x80	; 128
     4b4:	4f 16       	cp	r4, r31
     4b6:	fe e3       	ldi	r31, 0x3E	; 62
     4b8:	5f 06       	cpc	r5, r31
     4ba:	61 04       	cpc	r6, r1
     4bc:	71 04       	cpc	r7, r1
     4be:	40 f0       	brcs	.+16     	; 0x4d0 <receiveData+0x9e>
			{
				data[i+1] =  -1;
     4c0:	f5 01       	movw	r30, r10
     4c2:	c4 82       	std	Z+4, r12	; 0x04
     4c4:	d5 82       	std	Z+5, r13	; 0x05
     4c6:	e6 82       	std	Z+6, r14	; 0x06
     4c8:	f7 82       	std	Z+7, r15	; 0x07
				SendString("Read failure - timeout waiting for pulse\n\r");
     4ca:	81 eb       	ldi	r24, 0xB1	; 177
     4cc:	92 e0       	ldi	r25, 0x02	; 2
     4ce:	56 d4       	rcall	.+2220   	; 0xd7c <SendString>
     4d0:	ff ef       	ldi	r31, 0xFF	; 255
     4d2:	4f 1a       	sub	r4, r31
     4d4:	5f 0a       	sbc	r5, r31
     4d6:	6f 0a       	sbc	r6, r31
     4d8:	7f 0a       	sbc	r7, r31
			}
			
		}
		data[i] = count;
		count = 0;
		while ((PINL & (1<<PINL3)) != 0)
     4da:	88 81       	ld	r24, Y
     4dc:	83 fd       	sbrc	r24, 3
     4de:	e9 cf       	rjmp	.-46     	; 0x4b2 <receiveData+0x80>
			{
				data[i+1] =  -1;
				SendString("Read failure - timeout waiting for pulse\n\r");
			}
		}
		data[i+1] = count;
     4e0:	f5 01       	movw	r30, r10
     4e2:	44 82       	std	Z+4, r4	; 0x04
     4e4:	55 82       	std	Z+5, r5	; 0x05
     4e6:	66 82       	std	Z+6, r6	; 0x06
     4e8:	77 82       	std	Z+7, r7	; 0x07
     4ea:	08 5f       	subi	r16, 0xF8	; 248
     4ec:	1f 4f       	sbci	r17, 0xFF	; 255
	static uint32_t data[80];
	uint32_t count = 0;
	//Der kommer 40 pulse, først en lav på ca. 50us og så en høj som viser
	//om det er et 1 eller 0 ved hjælp af længden (1 = ca.70us , 0 = ca.26-28us), der er altså 80 pladser
	//i data for at rumme både de lave signaler men også de høje data signaler.
	for (int i = 0; i<80; i+=2)
     4ee:	08 15       	cp	r16, r8
     4f0:	19 05       	cpc	r17, r9
     4f2:	21 f0       	breq	.+8      	; 0x4fc <receiveData+0xca>
		}
	}
	return true;
}

uint32_t* receiveData() {
     4f4:	41 2c       	mov	r4, r1
     4f6:	51 2c       	mov	r5, r1
     4f8:	32 01       	movw	r6, r4
     4fa:	ce cf       	rjmp	.-100    	; 0x498 <receiveData+0x66>
		}
		data[i+1] = count;
		count = 0;
	}
	return data;
}
     4fc:	85 ea       	ldi	r24, 0xA5	; 165
     4fe:	93 e0       	ldi	r25, 0x03	; 3
     500:	df 91       	pop	r29
     502:	cf 91       	pop	r28
     504:	1f 91       	pop	r17
     506:	0f 91       	pop	r16
     508:	ff 90       	pop	r15
     50a:	ef 90       	pop	r14
     50c:	df 90       	pop	r13
     50e:	cf 90       	pop	r12
     510:	bf 90       	pop	r11
     512:	af 90       	pop	r10
     514:	9f 90       	pop	r9
     516:	8f 90       	pop	r8
     518:	7f 90       	pop	r7
     51a:	6f 90       	pop	r6
     51c:	5f 90       	pop	r5
     51e:	4f 90       	pop	r4
     520:	08 95       	ret

00000522 <rawToBinary>:

uint8_t* rawToBinary(uint32_t* signal){
     522:	8f 92       	push	r8
     524:	9f 92       	push	r9
     526:	af 92       	push	r10
     528:	bf 92       	push	r11
     52a:	cf 92       	push	r12
     52c:	df 92       	push	r13
     52e:	ef 92       	push	r14
     530:	ff 92       	push	r15
     532:	0f 93       	push	r16
     534:	1f 93       	push	r17
     536:	cf 93       	push	r28
     538:	df 93       	push	r29
	static uint8_t data[5];
	data[0] = data[1] = data[2] = data[3] = data[4] = 0;
     53a:	e0 ea       	ldi	r30, 0xA0	; 160
     53c:	f3 e0       	ldi	r31, 0x03	; 3
     53e:	14 82       	std	Z+4, r1	; 0x04
     540:	13 82       	std	Z+3, r1	; 0x03
     542:	12 82       	std	Z+2, r1	; 0x02
     544:	11 82       	std	Z+1, r1	; 0x01
     546:	10 82       	st	Z, r1
     548:	bc 01       	movw	r22, r24
	//translate from timed signal to data
	for (int i = 0; i < 40; ++i){
     54a:	40 e0       	ldi	r20, 0x00	; 0
     54c:	50 e0       	ldi	r21, 0x00	; 0
     54e:	fb 01       	movw	r30, r22
		uint32_t highTime = signal[i*2+1];
		uint32_t lowTime = signal[(i*2)];
		data[i/8] <<= 1;
     550:	9a 01       	movw	r18, r20
     552:	55 23       	and	r21, r21
     554:	14 f4       	brge	.+4      	; 0x55a <rawToBinary+0x38>
     556:	29 5f       	subi	r18, 0xF9	; 249
     558:	3f 4f       	sbci	r19, 0xFF	; 255
     55a:	35 95       	asr	r19
     55c:	27 95       	ror	r18
     55e:	35 95       	asr	r19
     560:	27 95       	ror	r18
     562:	35 95       	asr	r19
     564:	27 95       	ror	r18
     566:	d9 01       	movw	r26, r18
     568:	a0 56       	subi	r26, 0x60	; 96
     56a:	bc 4f       	sbci	r27, 0xFC	; 252
     56c:	9c 91       	ld	r25, X
     56e:	99 0f       	add	r25, r25
		if (highTime >= lowTime)
     570:	84 80       	ldd	r8, Z+4	; 0x04
     572:	95 80       	ldd	r9, Z+5	; 0x05
     574:	a6 80       	ldd	r10, Z+6	; 0x06
     576:	b7 80       	ldd	r11, Z+7	; 0x07
     578:	c0 80       	ld	r12, Z
     57a:	d1 80       	ldd	r13, Z+1	; 0x01
     57c:	e2 80       	ldd	r14, Z+2	; 0x02
     57e:	f3 80       	ldd	r15, Z+3	; 0x03
     580:	8c 14       	cp	r8, r12
     582:	9d 04       	cpc	r9, r13
     584:	ae 04       	cpc	r10, r14
     586:	bf 04       	cpc	r11, r15
     588:	18 f4       	brcc	.+6      	; 0x590 <rawToBinary+0x6e>
	data[0] = data[1] = data[2] = data[3] = data[4] = 0;
	//translate from timed signal to data
	for (int i = 0; i < 40; ++i){
		uint32_t highTime = signal[i*2+1];
		uint32_t lowTime = signal[(i*2)];
		data[i/8] <<= 1;
     58a:	fd 01       	movw	r30, r26
     58c:	90 83       	st	Z, r25
     58e:	05 c0       	rjmp	.+10     	; 0x59a <rawToBinary+0x78>
		if (highTime >= lowTime)
		{
			data[i/8] |= 1;
     590:	f9 01       	movw	r30, r18
     592:	e0 56       	subi	r30, 0x60	; 96
     594:	fc 4f       	sbci	r31, 0xFC	; 252
     596:	91 60       	ori	r25, 0x01	; 1
     598:	90 83       	st	Z, r25

uint8_t* rawToBinary(uint32_t* signal){
	static uint8_t data[5];
	data[0] = data[1] = data[2] = data[3] = data[4] = 0;
	//translate from timed signal to data
	for (int i = 0; i < 40; ++i){
     59a:	4f 5f       	subi	r20, 0xFF	; 255
     59c:	5f 4f       	sbci	r21, 0xFF	; 255
     59e:	68 5f       	subi	r22, 0xF8	; 248
     5a0:	7f 4f       	sbci	r23, 0xFF	; 255
     5a2:	48 32       	cpi	r20, 0x28	; 40
     5a4:	51 05       	cpc	r21, r1
     5a6:	99 f6       	brne	.-90     	; 0x54e <rawToBinary+0x2c>
		if (highTime >= lowTime)
		{
			data[i/8] |= 1;
		}
	}
	if (debugFlag) {
     5a8:	80 91 e7 04 	lds	r24, 0x04E7	; 0x8004e7 <debugFlag>
     5ac:	88 23       	and	r24, r24
     5ae:	81 f0       	breq	.+32     	; 0x5d0 <rawToBinary+0xae>
     5b0:	c0 ea       	ldi	r28, 0xA0	; 160
     5b2:	d3 e0       	ldi	r29, 0x03	; 3
     5b4:	05 ea       	ldi	r16, 0xA5	; 165
     5b6:	13 e0       	ldi	r17, 0x03	; 3
		for (int i = 0; i < 5; i++) {
			SendInteger(data[i]);
     5b8:	89 91       	ld	r24, Y+
     5ba:	90 e0       	ldi	r25, 0x00	; 0
     5bc:	ed d3       	rcall	.+2010   	; 0xd98 <SendInteger>
			SendString("  ");
     5be:	8c ed       	ldi	r24, 0xDC	; 220
     5c0:	92 e0       	ldi	r25, 0x02	; 2
     5c2:	dc d3       	rcall	.+1976   	; 0xd7c <SendString>
		{
			data[i/8] |= 1;
		}
	}
	if (debugFlag) {
		for (int i = 0; i < 5; i++) {
     5c4:	0c 17       	cp	r16, r28
     5c6:	1d 07       	cpc	r17, r29
     5c8:	b9 f7       	brne	.-18     	; 0x5b8 <rawToBinary+0x96>
			SendInteger(data[i]);
			SendString("  ");
		}
		SendString("\n\r");
     5ca:	8c e2       	ldi	r24, 0x2C	; 44
     5cc:	93 e0       	ldi	r25, 0x03	; 3
     5ce:	d6 d3       	rcall	.+1964   	; 0xd7c <SendString>
	}
	return data;
}
     5d0:	80 ea       	ldi	r24, 0xA0	; 160
     5d2:	93 e0       	ldi	r25, 0x03	; 3
     5d4:	df 91       	pop	r29
     5d6:	cf 91       	pop	r28
     5d8:	1f 91       	pop	r17
     5da:	0f 91       	pop	r16
     5dc:	ff 90       	pop	r15
     5de:	ef 90       	pop	r14
     5e0:	df 90       	pop	r13
     5e2:	cf 90       	pop	r12
     5e4:	bf 90       	pop	r11
     5e6:	af 90       	pop	r10
     5e8:	9f 90       	pop	r9
     5ea:	8f 90       	pop	r8
     5ec:	08 95       	ret

000005ee <readSensor>:

uint8_t* readSensor() {
     5ee:	ef 92       	push	r14
     5f0:	ff 92       	push	r15
     5f2:	0f 93       	push	r16
     5f4:	1f 93       	push	r17
     5f6:	cf 93       	push	r28
     5f8:	df 93       	push	r29
	if (isBusy() == false) {
     5fa:	9f de       	rcall	.-706    	; 0x33a <isBusy>
     5fc:	81 11       	cpse	r24, r1
     5fe:	49 c0       	rjmp	.+146    	; 0x692 <readSensor+0xa4>
		resetTimer();
     600:	94 de       	rcall	.-728    	; 0x32a <resetTimer>
		sendStartSignal();
     602:	c0 de       	rcall	.-640    	; 0x384 <sendStartSignal>
		waitForSensorConfirmation();
     604:	f0 de       	rcall	.-544    	; 0x3e6 <waitForSensorConfirmation>
     606:	15 df       	rcall	.-470    	; 0x432 <receiveData>
		uint32_t* rawSignal = receiveData();
     608:	7c 01       	movw	r14, r24
     60a:	80 91 e7 04 	lds	r24, 0x04E7	; 0x8004e7 <debugFlag>
		
		if (debugFlag)
     60e:	88 23       	and	r24, r24
     610:	91 f0       	breq	.+36     	; 0x636 <readSensor+0x48>
     612:	e7 01       	movw	r28, r14
     614:	87 01       	movw	r16, r14
     616:	00 5c       	subi	r16, 0xC0	; 192
     618:	1e 4f       	sbci	r17, 0xFE	; 254
     61a:	89 91       	ld	r24, Y+
		{
			for (int j = 0; j < 80; j+=1){
				SendInteger(rawSignal[j]);
     61c:	99 91       	ld	r25, Y+
     61e:	a9 91       	ld	r26, Y+
     620:	b9 91       	ld	r27, Y+
     622:	ba d3       	rcall	.+1908   	; 0xd98 <SendInteger>
     624:	8c ed       	ldi	r24, 0xDC	; 220
				SendString("  ");
     626:	92 e0       	ldi	r25, 0x02	; 2
     628:	a9 d3       	rcall	.+1874   	; 0xd7c <SendString>
     62a:	c0 17       	cp	r28, r16
		waitForSensorConfirmation();
		uint32_t* rawSignal = receiveData();
		
		if (debugFlag)
		{
			for (int j = 0; j < 80; j+=1){
     62c:	d1 07       	cpc	r29, r17
     62e:	a9 f7       	brne	.-22     	; 0x61a <readSensor+0x2c>
				SendInteger(rawSignal[j]);
				SendString("  ");
			}
			SendString("\n\r");
     630:	8c e2       	ldi	r24, 0x2C	; 44
     632:	93 e0       	ldi	r25, 0x03	; 3
     634:	a3 d3       	rcall	.+1862   	; 0xd7c <SendString>
     636:	c7 01       	movw	r24, r14
		}
		
		uint8_t* data = rawToBinary(rawSignal);
     638:	74 df       	rcall	.-280    	; 0x522 <rawToBinary>
     63a:	ec 01       	movw	r28, r24
     63c:	2c 81       	ldd	r18, Y+4	; 0x04
     63e:	30 e0       	ldi	r19, 0x00	; 0
		if (data[4] == ((data[0] + data[1] + data[2] + data[3]) & 0xff)){
     640:	48 81       	ld	r20, Y
     642:	89 81       	ldd	r24, Y+1	; 0x01
     644:	90 e0       	ldi	r25, 0x00	; 0
     646:	84 0f       	add	r24, r20
     648:	91 1d       	adc	r25, r1
     64a:	4a 81       	ldd	r20, Y+2	; 0x02
     64c:	84 0f       	add	r24, r20
     64e:	91 1d       	adc	r25, r1
     650:	4b 81       	ldd	r20, Y+3	; 0x03
     652:	84 0f       	add	r24, r20
     654:	91 1d       	adc	r25, r1
     656:	99 27       	eor	r25, r25
     658:	28 17       	cp	r18, r24
     65a:	39 07       	cpc	r19, r25
     65c:	71 f4       	brne	.+28     	; 0x67a <readSensor+0x8c>
     65e:	80 91 e7 04 	lds	r24, 0x04E7	; 0x8004e7 <debugFlag>
			if (debugFlag) {
     662:	88 23       	and	r24, r24
     664:	19 f0       	breq	.+6      	; 0x66c <readSensor+0x7e>
     666:	8f ed       	ldi	r24, 0xDF	; 223
				SendString("Checksum success\n\r");
     668:	92 e0       	ldi	r25, 0x02	; 2
     66a:	88 d3       	rcall	.+1808   	; 0xd7c <SendString>
     66c:	d0 93 e6 04 	sts	0x04E6, r29	; 0x8004e6 <latestRead+0x1>
			}
			latestRead = data;
     670:	c0 93 e5 04 	sts	0x04E5, r28	; 0x8004e5 <latestRead>
     674:	8c 2f       	mov	r24, r28
			return data;
     676:	9d 2f       	mov	r25, r29
     678:	17 c0       	rjmp	.+46     	; 0x6a8 <readSensor+0xba>
     67a:	80 91 e7 04 	lds	r24, 0x04E7	; 0x8004e7 <debugFlag>
		} 
		else {
			if (debugFlag) {
     67e:	88 23       	and	r24, r24
     680:	19 f0       	breq	.+6      	; 0x688 <readSensor+0x9a>
     682:	82 ef       	ldi	r24, 0xF2	; 242
				SendString("Checksum Failure\n\r");
     684:	92 e0       	ldi	r25, 0x02	; 2
     686:	7a d3       	rcall	.+1780   	; 0xd7c <SendString>
     688:	80 91 e5 04 	lds	r24, 0x04E5	; 0x8004e5 <latestRead>
			}
			return latestRead;
     68c:	90 91 e6 04 	lds	r25, 0x04E6	; 0x8004e6 <latestRead+0x1>
     690:	0b c0       	rjmp	.+22     	; 0x6a8 <readSensor+0xba>
     692:	80 91 e7 04 	lds	r24, 0x04E7	; 0x8004e7 <debugFlag>
		}
	} else {
		if (debugFlag) {
     696:	88 23       	and	r24, r24
     698:	19 f0       	breq	.+6      	; 0x6a0 <readSensor+0xb2>
     69a:	85 e0       	ldi	r24, 0x05	; 5
			SendString("Read too soon - Returning previous data\n\r");
     69c:	93 e0       	ldi	r25, 0x03	; 3
     69e:	6e d3       	rcall	.+1756   	; 0xd7c <SendString>
     6a0:	80 91 e5 04 	lds	r24, 0x04E5	; 0x8004e5 <latestRead>
		}
		return latestRead;
     6a4:	90 91 e6 04 	lds	r25, 0x04E6	; 0x8004e6 <latestRead+0x1>
     6a8:	df 91       	pop	r29
     6aa:	cf 91       	pop	r28
	}

}
     6ac:	1f 91       	pop	r17
     6ae:	0f 91       	pop	r16
     6b0:	ff 90       	pop	r15
     6b2:	ef 90       	pop	r14
     6b4:	08 95       	ret

000006b6 <readHumidity>:
     6b6:	9b df       	rcall	.-202    	; 0x5ee <readSensor>
     6b8:	fc 01       	movw	r30, r24

float readHumidity(){
	uint8_t* data = readSensor();
	float humidity = ((data[0] << 8) | data[1]) * 0.1;
	return humidity;
     6ba:	60 81       	ld	r22, Z
     6bc:	70 e0       	ldi	r23, 0x00	; 0
     6be:	76 2f       	mov	r23, r22
     6c0:	66 27       	eor	r22, r22
     6c2:	81 81       	ldd	r24, Z+1	; 0x01
     6c4:	68 2b       	or	r22, r24
     6c6:	07 2e       	mov	r0, r23
     6c8:	00 0c       	add	r0, r0
     6ca:	88 0b       	sbc	r24, r24
     6cc:	99 0b       	sbc	r25, r25
     6ce:	ad d5       	rcall	.+2906   	; 0x122a <__floatsisf>
     6d0:	2d ec       	ldi	r18, 0xCD	; 205
     6d2:	3c ec       	ldi	r19, 0xCC	; 204
     6d4:	4c ec       	ldi	r20, 0xCC	; 204
     6d6:	5d e3       	ldi	r21, 0x3D	; 61
}
     6d8:	0e c7       	rjmp	.+3612   	; 0x14f6 <__mulsf3>

000006da <readTemperature>:
	
float readTemperature(){
     6da:	cf 93       	push	r28
	uint8_t* data = readSensor();
     6dc:	88 df       	rcall	.-240    	; 0x5ee <readSensor>
	float temperature = ((data[2] & 0x7F) << 8 | data[3]) * 0.1;
     6de:	fc 01       	movw	r30, r24
     6e0:	c2 81       	ldd	r28, Z+2	; 0x02
     6e2:	6c 2f       	mov	r22, r28
     6e4:	6f 77       	andi	r22, 0x7F	; 127
     6e6:	70 e0       	ldi	r23, 0x00	; 0
     6e8:	76 2f       	mov	r23, r22
     6ea:	66 27       	eor	r22, r22
     6ec:	83 81       	ldd	r24, Z+3	; 0x03
     6ee:	68 2b       	or	r22, r24
     6f0:	07 2e       	mov	r0, r23
     6f2:	00 0c       	add	r0, r0
     6f4:	88 0b       	sbc	r24, r24
     6f6:	99 0b       	sbc	r25, r25
     6f8:	98 d5       	rcall	.+2864   	; 0x122a <__floatsisf>
     6fa:	2d ec       	ldi	r18, 0xCD	; 205
     6fc:	3c ec       	ldi	r19, 0xCC	; 204
     6fe:	4c ec       	ldi	r20, 0xCC	; 204
     700:	5d e3       	ldi	r21, 0x3D	; 61
     702:	f9 d6       	rcall	.+3570   	; 0x14f6 <__mulsf3>
	if (data[2] >= 128){	//Hvis det forreste bit af de 8 temperatur bits er 1 er det et negativt tal
     704:	cc 23       	and	r28, r28
     706:	0c f4       	brge	.+2      	; 0x70a <readTemperature+0x30>
		temperature *= -1;
     708:	90 58       	subi	r25, 0x80	; 128
	}
	return temperature;
     70a:	cf 91       	pop	r28
     70c:	08 95       	ret

0000070e <pulse_E>:
// Reference: Page 46 in the HD44780 data sheet
void LCDScreenOff(){
	sendInstruction(0b00001000);
}
void LCDScreenOn(){
	sendInstruction(0b00001100);
     70e:	e2 e0       	ldi	r30, 0x02	; 2
     710:	f1 e0       	ldi	r31, 0x01	; 1
     712:	80 81       	ld	r24, Z
     714:	80 64       	ori	r24, 0x40	; 64
     716:	80 83       	st	Z, r24
	...
     720:	80 81       	ld	r24, Z
     722:	8f 7b       	andi	r24, 0xBF	; 191
     724:	80 83       	st	Z, r24
	...
     72e:	08 95       	ret

00000730 <set4DataPins>:
     730:	e2 e0       	ldi	r30, 0x02	; 2
     732:	f1 e0       	ldi	r31, 0x01	; 1
     734:	20 81       	ld	r18, Z
     736:	90 e0       	ldi	r25, 0x00	; 0
     738:	ac 01       	movw	r20, r24
     73a:	44 0f       	add	r20, r20
     73c:	55 1f       	adc	r21, r21
     73e:	48 71       	andi	r20, 0x18	; 24
     740:	27 7e       	andi	r18, 0xE7	; 231
     742:	24 2b       	or	r18, r20
     744:	20 83       	st	Z, r18
     746:	2e b1       	in	r18, 0x0e	; 14
     748:	ac 01       	movw	r20, r24
     74a:	44 0f       	add	r20, r20
     74c:	55 1f       	adc	r21, r21
     74e:	44 0f       	add	r20, r20
     750:	55 1f       	adc	r21, r21
     752:	48 70       	andi	r20, 0x08	; 8
     754:	27 7f       	andi	r18, 0xF7	; 247
     756:	24 2b       	or	r18, r20
     758:	2e b9       	out	0x0e, r18	; 14
     75a:	24 b3       	in	r18, 0x14	; 20
     75c:	88 0f       	add	r24, r24
     75e:	99 1f       	adc	r25, r25
     760:	82 95       	swap	r24
     762:	92 95       	swap	r25
     764:	90 7f       	andi	r25, 0xF0	; 240
     766:	98 27       	eor	r25, r24
     768:	80 7f       	andi	r24, 0xF0	; 240
     76a:	98 27       	eor	r25, r24
     76c:	80 72       	andi	r24, 0x20	; 32
     76e:	92 2f       	mov	r25, r18
     770:	9f 7d       	andi	r25, 0xDF	; 223
     772:	89 2b       	or	r24, r25
     774:	84 bb       	out	0x14, r24	; 20
     776:	08 95       	ret

00000778 <sendInstruction>:
     778:	cf 93       	push	r28
     77a:	c8 2f       	mov	r28, r24
     77c:	8f e3       	ldi	r24, 0x3F	; 63
     77e:	9f e1       	ldi	r25, 0x1F	; 31
     780:	01 97       	sbiw	r24, 0x01	; 1
     782:	f1 f7       	brne	.-4      	; 0x780 <sendInstruction+0x8>
     784:	00 c0       	rjmp	.+0      	; 0x786 <sendInstruction+0xe>
     786:	00 00       	nop
     788:	e2 e0       	ldi	r30, 0x02	; 2
     78a:	f1 e0       	ldi	r31, 0x01	; 1
     78c:	80 81       	ld	r24, Z
     78e:	8f 79       	andi	r24, 0x9F	; 159
     790:	80 83       	st	Z, r24
     792:	8c 2f       	mov	r24, r28
     794:	82 95       	swap	r24
     796:	8f 70       	andi	r24, 0x0F	; 15
     798:	cb df       	rcall	.-106    	; 0x730 <set4DataPins>
     79a:	b9 df       	rcall	.-142    	; 0x70e <pulse_E>
     79c:	8c 2f       	mov	r24, r28
     79e:	c8 df       	rcall	.-112    	; 0x730 <set4DataPins>
     7a0:	b6 df       	rcall	.-148    	; 0x70e <pulse_E>
     7a2:	cf 91       	pop	r28
     7a4:	08 95       	ret

000007a6 <setRS>:
     7a6:	88 23       	and	r24, r24
     7a8:	31 f0       	breq	.+12     	; 0x7b6 <setRS+0x10>
     7aa:	e2 e0       	ldi	r30, 0x02	; 2
     7ac:	f1 e0       	ldi	r31, 0x01	; 1
     7ae:	80 81       	ld	r24, Z
     7b0:	80 62       	ori	r24, 0x20	; 32
     7b2:	80 83       	st	Z, r24
     7b4:	08 95       	ret
     7b6:	e2 e0       	ldi	r30, 0x02	; 2
     7b8:	f1 e0       	ldi	r31, 0x01	; 1
     7ba:	80 81       	ld	r24, Z
     7bc:	8f 7d       	andi	r24, 0xDF	; 223
     7be:	80 83       	st	Z, r24
     7c0:	08 95       	ret

000007c2 <sendData>:
     7c2:	cf 93       	push	r28
     7c4:	c8 2f       	mov	r28, r24
     7c6:	8f e3       	ldi	r24, 0x3F	; 63
     7c8:	9f e1       	ldi	r25, 0x1F	; 31
     7ca:	01 97       	sbiw	r24, 0x01	; 1
     7cc:	f1 f7       	brne	.-4      	; 0x7ca <sendData+0x8>
     7ce:	00 c0       	rjmp	.+0      	; 0x7d0 <sendData+0xe>
     7d0:	00 00       	nop
     7d2:	e2 e0       	ldi	r30, 0x02	; 2
     7d4:	f1 e0       	ldi	r31, 0x01	; 1
     7d6:	80 81       	ld	r24, Z
     7d8:	8f 7b       	andi	r24, 0xBF	; 191
     7da:	80 83       	st	Z, r24
     7dc:	81 e0       	ldi	r24, 0x01	; 1
     7de:	90 e0       	ldi	r25, 0x00	; 0
     7e0:	e2 df       	rcall	.-60     	; 0x7a6 <setRS>
     7e2:	8c 2f       	mov	r24, r28
     7e4:	82 95       	swap	r24
     7e6:	8f 70       	andi	r24, 0x0F	; 15
     7e8:	a3 df       	rcall	.-186    	; 0x730 <set4DataPins>
     7ea:	91 df       	rcall	.-222    	; 0x70e <pulse_E>
     7ec:	8c 2f       	mov	r24, r28
     7ee:	a0 df       	rcall	.-192    	; 0x730 <set4DataPins>
     7f0:	8e df       	rcall	.-228    	; 0x70e <pulse_E>
     7f2:	cf 91       	pop	r28
     7f4:	08 95       	ret

000007f6 <LCDInit>:
}

void LCDInit()
{
  // Initializing the used port
  DDRH |= 0b01111000;  // Outputs
     7f6:	e1 e0       	ldi	r30, 0x01	; 1
     7f8:	f1 e0       	ldi	r31, 0x01	; 1
     7fa:	80 81       	ld	r24, Z
     7fc:	88 67       	ori	r24, 0x78	; 120
     7fe:	80 83       	st	Z, r24
  DDRE |= 0b00001000;
     800:	6b 9a       	sbi	0x0d, 3	; 13
  DDRG |= 0b00100000;
     802:	9d 9a       	sbi	0x13, 5	; 19
	#else
		//round up by default
		__ticks_dc = (uint32_t)(ceil(fabs(__tmp)));
	#endif

	__builtin_avr_delay_cycles(__ticks_dc);
     804:	2f ef       	ldi	r18, 0xFF	; 255
     806:	80 e7       	ldi	r24, 0x70	; 112
     808:	92 e0       	ldi	r25, 0x02	; 2
     80a:	21 50       	subi	r18, 0x01	; 1
     80c:	80 40       	sbci	r24, 0x00	; 0
     80e:	90 40       	sbci	r25, 0x00	; 0
     810:	e1 f7       	brne	.-8      	; 0x80a <LCDInit+0x14>
     812:	00 c0       	rjmp	.+0      	; 0x814 <LCDInit+0x1e>
     814:	00 00       	nop
  
  // Wait 50 ms (min. 15 ms demanded according to the data sheet)
  _delay_ms(50);
  // Function set (still 8 bit interface)
  PORTG |= 0b00100000;
     816:	a5 9a       	sbi	0x14, 5	; 20
  PORTE |= 0b00001000;
     818:	73 9a       	sbi	0x0e, 3	; 14
  pulse_E();
     81a:	79 df       	rcall	.-270    	; 0x70e <pulse_E>
     81c:	8f e3       	ldi	r24, 0x3F	; 63
     81e:	9c e9       	ldi	r25, 0x9C	; 156
     820:	01 97       	sbiw	r24, 0x01	; 1
     822:	f1 f7       	brne	.-4      	; 0x820 <LCDInit+0x2a>
     824:	00 c0       	rjmp	.+0      	; 0x826 <LCDInit+0x30>
  
  // Wait 10 ms (min. 4,1 ms demanded according to the data sheet)
  _delay_ms(10);
  // Function set (still 8 bit interface)
  pulse_E();
     826:	00 00       	nop
     828:	72 df       	rcall	.-284    	; 0x70e <pulse_E>
     82a:	8f e3       	ldi	r24, 0x3F	; 63
     82c:	9c e9       	ldi	r25, 0x9C	; 156
     82e:	01 97       	sbiw	r24, 0x01	; 1
     830:	f1 f7       	brne	.-4      	; 0x82e <LCDInit+0x38>
     832:	00 c0       	rjmp	.+0      	; 0x834 <LCDInit+0x3e>

  // Wait 10 ms (min. 100 us demanded according to the data sheet)
  _delay_ms(10);
  // Function set (still 8 bit interface)
  pulse_E();
     834:	00 00       	nop
     836:	6b df       	rcall	.-298    	; 0x70e <pulse_E>
     838:	8f e3       	ldi	r24, 0x3F	; 63
     83a:	9c e9       	ldi	r25, 0x9C	; 156
     83c:	01 97       	sbiw	r24, 0x01	; 1
     83e:	f1 f7       	brne	.-4      	; 0x83c <LCDInit+0x46>
     840:	00 c0       	rjmp	.+0      	; 0x842 <LCDInit+0x4c>

  // Wait 10 ms (min. 100 us demanded according to the data sheet)
  _delay_ms(10);
  // Function set (now selecting 4 bit interface !)
  PORTG &= 0b11011111;
  pulse_E();
     842:	00 00       	nop

  // Function Set : 4 bit interface, 2 line display, 5x8 dots
  sendInstruction( 0b00101000 );
     844:	a5 98       	cbi	0x14, 5	; 20
     846:	63 df       	rcall	.-314    	; 0x70e <pulse_E>
  // Display, cursor and blinking OFF
  sendInstruction( 0b00001000 );
     848:	88 e2       	ldi	r24, 0x28	; 40
     84a:	96 df       	rcall	.-212    	; 0x778 <sendInstruction>
  // Clear display and set DDRAM adr = 0	
  sendInstruction( 0b00000001 );
     84c:	88 e0       	ldi	r24, 0x08	; 8
     84e:	94 df       	rcall	.-216    	; 0x778 <sendInstruction>
     850:	81 e0       	ldi	r24, 0x01	; 1
  // By display writes : Increment cursor / no shift
  sendInstruction( 0b00000110 );
     852:	92 df       	rcall	.-220    	; 0x778 <sendInstruction>
     854:	86 e0       	ldi	r24, 0x06	; 6
     856:	90 df       	rcall	.-224    	; 0x778 <sendInstruction>
  // Display ON, cursor and blinking OFF
  sendInstruction( 0b00001111 );
     858:	8f e0       	ldi	r24, 0x0F	; 15
     85a:	8e cf       	rjmp	.-228    	; 0x778 <sendInstruction>
     85c:	08 95       	ret

0000085e <LCDClear>:
     85e:	81 e0       	ldi	r24, 0x01	; 1

// Blanks the display and sets "current display position" to
// the upper line, leftmost character
void LCDClear()
{
  sendInstruction( 0b00000001 );
     860:	8b cf       	rjmp	.-234    	; 0x778 <sendInstruction>
     862:	08 95       	ret

00000864 <LCDGotoXY>:
void LCDGotoXY( unsigned char x, unsigned char y )
{
	unsigned char instruction;
	instruction = (0b10000000+x)+y*0x40;
	
	sendInstruction(instruction);
     864:	80 58       	subi	r24, 0x80	; 128
     866:	90 e4       	ldi	r25, 0x40	; 64
     868:	69 9f       	mul	r22, r25
     86a:	80 0d       	add	r24, r0
     86c:	11 24       	eor	r1, r1
     86e:	84 cf       	rjmp	.-248    	; 0x778 <sendInstruction>
     870:	08 95       	ret

00000872 <LCDDispChar>:
}

// Display "ch" at "current display position"
void LCDDispChar(char ch)
{
	sendData(ch);
     872:	a7 cf       	rjmp	.-178    	; 0x7c2 <sendData>
     874:	08 95       	ret

00000876 <LCDDispString>:
}

// Displays the string "str" starting at "current display position"
void LCDDispString(char* str)
{
     876:	cf 93       	push	r28
     878:	df 93       	push	r29
     87a:	ec 01       	movw	r28, r24
	for (char* t = str; *t != '\0'; t++) {
     87c:	88 81       	ld	r24, Y
     87e:	88 23       	and	r24, r24
     880:	29 f0       	breq	.+10     	; 0x88c <LCDDispString+0x16>
     882:	21 96       	adiw	r28, 0x01	; 1
		sendData(*t);
     884:	9e df       	rcall	.-196    	; 0x7c2 <sendData>
}

// Displays the string "str" starting at "current display position"
void LCDDispString(char* str)
{
	for (char* t = str; *t != '\0'; t++) {
     886:	89 91       	ld	r24, Y+
     888:	81 11       	cpse	r24, r1
     88a:	fc cf       	rjmp	.-8      	; 0x884 <LCDDispString+0xe>
		sendData(*t);
	}
}
     88c:	df 91       	pop	r29
     88e:	cf 91       	pop	r28
     890:	08 95       	ret

00000892 <LCDDispInteger>:

// Displays the value of integer "i" at "current display position"
void LCDDispInteger(int i)
{
     892:	cf 93       	push	r28
     894:	df 93       	push	r29
     896:	cd b7       	in	r28, 0x3d	; 61
     898:	de b7       	in	r29, 0x3e	; 62
     89a:	27 97       	sbiw	r28, 0x07	; 7
     89c:	0f b6       	in	r0, 0x3f	; 63
     89e:	f8 94       	cli
     8a0:	de bf       	out	0x3e, r29	; 62
     8a2:	0f be       	out	0x3f, r0	; 63
     8a4:	cd bf       	out	0x3d, r28	; 61
    } else if (__radix < 2 || __radix > 36) {
	*__s = 0;
	return __s;
    } else {
	extern char *__itoa_ncheck (int, char *, unsigned char);
	return __itoa_ncheck (__val, __s, __radix);
     8a6:	4a e0       	ldi	r20, 0x0A	; 10
     8a8:	be 01       	movw	r22, r28
     8aa:	6f 5f       	subi	r22, 0xFF	; 255
     8ac:	7f 4f       	sbci	r23, 0xFF	; 255
     8ae:	0e 94 d9 0f 	call	0x1fb2	; 0x1fb2 <__itoa_ncheck>
	char number[7];
	itoa(i, number, 10);
	LCDDispString(number);
     8b2:	ce 01       	movw	r24, r28
     8b4:	01 96       	adiw	r24, 0x01	; 1
     8b6:	df df       	rcall	.-66     	; 0x876 <LCDDispString>
}
     8b8:	27 96       	adiw	r28, 0x07	; 7
     8ba:	0f b6       	in	r0, 0x3f	; 63
     8bc:	f8 94       	cli
     8be:	de bf       	out	0x3e, r29	; 62
     8c0:	0f be       	out	0x3f, r0	; 63
     8c2:	cd bf       	out	0x3d, r28	; 61
     8c4:	df 91       	pop	r29
     8c6:	cf 91       	pop	r28
     8c8:	08 95       	ret

000008ca <LCDLoadUDC>:

// Loads one of the 8 user definable characters (UDC) with a dot-pattern,
// pre-defined in an 8 byte array in FLASH memory
void LCDLoadUDC(unsigned char UDCNo, const unsigned char *UDCTab)
{
     8ca:	0f 93       	push	r16
     8cc:	1f 93       	push	r17
     8ce:	cf 93       	push	r28
     8d0:	df 93       	push	r29
     8d2:	8b 01       	movw	r16, r22
	unsigned char i;
	
	sendInstruction(0b01000000 | (UDCNo<<3));
     8d4:	28 e0       	ldi	r18, 0x08	; 8
     8d6:	82 9f       	mul	r24, r18
     8d8:	c0 01       	movw	r24, r0
     8da:	11 24       	eor	r1, r1
     8dc:	80 64       	ori	r24, 0x40	; 64
     8de:	4c df       	rcall	.-360    	; 0x778 <sendInstruction>
     8e0:	e8 01       	movw	r28, r16
     8e2:	08 5f       	subi	r16, 0xF8	; 248
     8e4:	1f 4f       	sbci	r17, 0xFF	; 255
	
	for(i=0; i<8; i++)
	sendData(*UDCTab++);
     8e6:	89 91       	ld	r24, Y+
     8e8:	6c df       	rcall	.-296    	; 0x7c2 <sendData>
{
	unsigned char i;
	
	sendInstruction(0b01000000 | (UDCNo<<3));
	
	for(i=0; i<8; i++)
     8ea:	c0 17       	cp	r28, r16
     8ec:	d1 07       	cpc	r29, r17
void LCDGotoXY( unsigned char x, unsigned char y )
{
	unsigned char instruction;
	instruction = (0b10000000+x)+y*0x40;
	
	sendInstruction(instruction);
     8ee:	d9 f7       	brne	.-10     	; 0x8e6 <LCDLoadUDC+0x1c>
     8f0:	80 e8       	ldi	r24, 0x80	; 128
     8f2:	42 df       	rcall	.-380    	; 0x778 <sendInstruction>
	
	for(i=0; i<8; i++)
	sendData(*UDCTab++);

	LCDGotoXY(0,0);
}
     8f4:	df 91       	pop	r29
     8f6:	cf 91       	pop	r28
     8f8:	1f 91       	pop	r17
     8fa:	0f 91       	pop	r16
     8fc:	08 95       	ret

000008fe <i2c_init>:
void i2c_init()
{
	//setting scl frequenzy:
	// Mellem 100 og 400kHz som defineret i databladet for ds3231
	//
	TWSR &= ~(14);
     8fe:	e9 eb       	ldi	r30, 0xB9	; 185
     900:	f0 e0       	ldi	r31, 0x00	; 0
     902:	80 81       	ld	r24, Z
     904:	81 7f       	andi	r24, 0xF1	; 241
     906:	80 83       	st	Z, r24
	TWBR = 10;
     908:	8a e0       	ldi	r24, 0x0A	; 10
     90a:	80 93 b8 00 	sts	0x00B8, r24	; 0x8000b8 <__TEXT_REGION_LENGTH__+0x7000b8>
     90e:	08 95       	ret

00000910 <i2c_start>:
	
}

void i2c_start()
{
	TWCR = (1<<TWINT) | (1<<TWSTA) | (1<<TWEN);
     910:	84 ea       	ldi	r24, 0xA4	; 164
     912:	80 93 bc 00 	sts	0x00BC, r24	; 0x8000bc <__TEXT_REGION_LENGTH__+0x7000bc>
	while ((TWCR & (1<<TWINT)) == 0)
     916:	ec eb       	ldi	r30, 0xBC	; 188
     918:	f0 e0       	ldi	r31, 0x00	; 0
     91a:	80 81       	ld	r24, Z
     91c:	88 23       	and	r24, r24
     91e:	ec f7       	brge	.-6      	; 0x91a <i2c_start+0xa>
	{}
}
     920:	08 95       	ret

00000922 <i2c_write>:

void i2c_write(unsigned char data)
{
	TWDR = data;
     922:	80 93 bb 00 	sts	0x00BB, r24	; 0x8000bb <__TEXT_REGION_LENGTH__+0x7000bb>
	TWCR = (1<<TWINT) | (1<<TWEN);
     926:	84 e8       	ldi	r24, 0x84	; 132
     928:	80 93 bc 00 	sts	0x00BC, r24	; 0x8000bc <__TEXT_REGION_LENGTH__+0x7000bc>
	while ((TWCR & (1<<TWINT)) == 0)
     92c:	ec eb       	ldi	r30, 0xBC	; 188
     92e:	f0 e0       	ldi	r31, 0x00	; 0
     930:	80 81       	ld	r24, Z
     932:	88 23       	and	r24, r24
     934:	ec f7       	brge	.-6      	; 0x930 <i2c_write+0xe>
	{}
}
     936:	08 95       	ret

00000938 <i2c_read>:

unsigned char i2c_read (unsigned char isLast)
{
	if (isLast == 0)
     938:	81 11       	cpse	r24, r1
     93a:	04 c0       	rjmp	.+8      	; 0x944 <i2c_read+0xc>
	TWCR = (1<<TWINT) | (1<<TWEN) | (1<<TWEA);
     93c:	84 ec       	ldi	r24, 0xC4	; 196
     93e:	80 93 bc 00 	sts	0x00BC, r24	; 0x8000bc <__TEXT_REGION_LENGTH__+0x7000bc>
     942:	03 c0       	rjmp	.+6      	; 0x94a <i2c_read+0x12>
	else
	TWCR = (1<<TWINT) | (1<<TWEN);
     944:	84 e8       	ldi	r24, 0x84	; 132
     946:	80 93 bc 00 	sts	0x00BC, r24	; 0x8000bc <__TEXT_REGION_LENGTH__+0x7000bc>
	while ((TWCR & (1<<TWINT)) == 0)
     94a:	ec eb       	ldi	r30, 0xBC	; 188
     94c:	f0 e0       	ldi	r31, 0x00	; 0
     94e:	80 81       	ld	r24, Z
     950:	88 23       	and	r24, r24
     952:	ec f7       	brge	.-6      	; 0x94e <i2c_read+0x16>
	{}
	return TWDR;
     954:	80 91 bb 00 	lds	r24, 0x00BB	; 0x8000bb <__TEXT_REGION_LENGTH__+0x7000bb>
}
     958:	08 95       	ret

0000095a <i2c_stop>:

void i2c_stop()
{
	TWCR = (1<<TWINT) | (1<<TWEN) | (1<<TWSTO);
     95a:	84 e9       	ldi	r24, 0x94	; 148
     95c:	80 93 bc 00 	sts	0x00BC, r24	; 0x8000bc <__TEXT_REGION_LENGTH__+0x7000bc>
     960:	08 95       	ret

00000962 <MQResistanceCalculation>:
}

//Input:   adc value
//Output:  Rs sensor resistance
//Calculate Sensor resistance from ADC
float MQResistanceCalculation(int adc_value){
     962:	4f 92       	push	r4
     964:	5f 92       	push	r5
     966:	6f 92       	push	r6
     968:	7f 92       	push	r7
     96a:	8f 92       	push	r8
     96c:	9f 92       	push	r9
     96e:	af 92       	push	r10
     970:	bf 92       	push	r11
     972:	cf 92       	push	r12
     974:	df 92       	push	r13
     976:	ef 92       	push	r14
     978:	ff 92       	push	r15
     97a:	0f 93       	push	r16
     97c:	1f 93       	push	r17
     97e:	cf 93       	push	r28
     980:	df 93       	push	r29
     982:	00 d0       	rcall	.+0      	; 0x984 <MQResistanceCalculation+0x22>
     984:	1f 92       	push	r1
     986:	cd b7       	in	r28, 0x3d	; 61
     988:	de b7       	in	r29, 0x3e	; 62
     98a:	8c 01       	movw	r16, r24
	volatile float result = ((5.0*(float)RL_VALUE)-((float)RL_VALUE*AdcToVoltage(adc_value)))/AdcToVoltage(adc_value);
     98c:	60 91 08 02 	lds	r22, 0x0208	; 0x800208 <RL_VALUE>
     990:	70 91 09 02 	lds	r23, 0x0209	; 0x800209 <RL_VALUE+0x1>
     994:	07 2e       	mov	r0, r23
     996:	00 0c       	add	r0, r0
     998:	88 0b       	sbc	r24, r24
     99a:	99 0b       	sbc	r25, r25
     99c:	46 d4       	rcall	.+2188   	; 0x122a <__floatsisf>
     99e:	4b 01       	movw	r8, r22
     9a0:	5c 01       	movw	r10, r24

//Input:   adc_value
//Output:  voltage
//Calculate Voltage from ADC
float AdcToVoltage(int adc_value){
	float result = (((float)adc_value)/1023.0)*5.0;
     9a2:	b8 01       	movw	r22, r16
     9a4:	11 0f       	add	r17, r17
     9a6:	88 0b       	sbc	r24, r24
     9a8:	99 0b       	sbc	r25, r25
     9aa:	3f d4       	rcall	.+2174   	; 0x122a <__floatsisf>
     9ac:	20 e0       	ldi	r18, 0x00	; 0
     9ae:	30 ec       	ldi	r19, 0xC0	; 192
     9b0:	4f e7       	ldi	r20, 0x7F	; 127
     9b2:	54 e4       	ldi	r21, 0x44	; 68
     9b4:	6e d3       	rcall	.+1756   	; 0x1092 <__divsf3>
     9b6:	20 e0       	ldi	r18, 0x00	; 0
     9b8:	30 e0       	ldi	r19, 0x00	; 0
     9ba:	40 ea       	ldi	r20, 0xA0	; 160
     9bc:	50 e4       	ldi	r21, 0x40	; 64
     9be:	9b d5       	rcall	.+2870   	; 0x14f6 <__mulsf3>
     9c0:	6b 01       	movw	r12, r22
     9c2:	7c 01       	movw	r14, r24

//Input:   adc value
//Output:  Rs sensor resistance
//Calculate Sensor resistance from ADC
float MQResistanceCalculation(int adc_value){
	volatile float result = ((5.0*(float)RL_VALUE)-((float)RL_VALUE*AdcToVoltage(adc_value)))/AdcToVoltage(adc_value);
     9c4:	20 e0       	ldi	r18, 0x00	; 0
     9c6:	30 e0       	ldi	r19, 0x00	; 0
     9c8:	40 ea       	ldi	r20, 0xA0	; 160
     9ca:	50 e4       	ldi	r21, 0x40	; 64
     9cc:	c5 01       	movw	r24, r10
     9ce:	b4 01       	movw	r22, r8
     9d0:	92 d5       	rcall	.+2852   	; 0x14f6 <__mulsf3>
     9d2:	2b 01       	movw	r4, r22
     9d4:	3c 01       	movw	r6, r24
     9d6:	a7 01       	movw	r20, r14
     9d8:	96 01       	movw	r18, r12
     9da:	c5 01       	movw	r24, r10
     9dc:	b4 01       	movw	r22, r8
     9de:	8b d5       	rcall	.+2838   	; 0x14f6 <__mulsf3>
     9e0:	9b 01       	movw	r18, r22
     9e2:	ac 01       	movw	r20, r24
     9e4:	c3 01       	movw	r24, r6
     9e6:	b2 01       	movw	r22, r4
     9e8:	ef d2       	rcall	.+1502   	; 0xfc8 <__subsf3>
     9ea:	a7 01       	movw	r20, r14
     9ec:	96 01       	movw	r18, r12
     9ee:	51 d3       	rcall	.+1698   	; 0x1092 <__divsf3>
     9f0:	69 83       	std	Y+1, r22	; 0x01
     9f2:	7a 83       	std	Y+2, r23	; 0x02
     9f4:	8b 83       	std	Y+3, r24	; 0x03
     9f6:	9c 83       	std	Y+4, r25	; 0x04
	return result;
     9f8:	69 81       	ldd	r22, Y+1	; 0x01
     9fa:	7a 81       	ldd	r23, Y+2	; 0x02
     9fc:	8b 81       	ldd	r24, Y+3	; 0x03
     9fe:	9c 81       	ldd	r25, Y+4	; 0x04
}
     a00:	0f 90       	pop	r0
     a02:	0f 90       	pop	r0
     a04:	0f 90       	pop	r0
     a06:	0f 90       	pop	r0
     a08:	df 91       	pop	r29
     a0a:	cf 91       	pop	r28
     a0c:	1f 91       	pop	r17
     a0e:	0f 91       	pop	r16
     a10:	ff 90       	pop	r15
     a12:	ef 90       	pop	r14
     a14:	df 90       	pop	r13
     a16:	cf 90       	pop	r12
     a18:	bf 90       	pop	r11
     a1a:	af 90       	pop	r10
     a1c:	9f 90       	pop	r9
     a1e:	8f 90       	pop	r8
     a20:	7f 90       	pop	r7
     a22:	6f 90       	pop	r6
     a24:	5f 90       	pop	r5
     a26:	4f 90       	pop	r4
     a28:	08 95       	ret

00000a2a <Init_MQ>:

//Initializes the sensor by initializing the dependencies
void Init_MQ(){
	InitUART(9600, 8, 'N');
     a2a:	2e e4       	ldi	r18, 0x4E	; 78
     a2c:	48 e0       	ldi	r20, 0x08	; 8
     a2e:	60 e8       	ldi	r22, 0x80	; 128
     a30:	75 e2       	ldi	r23, 0x25	; 37
     a32:	80 e0       	ldi	r24, 0x00	; 0
     a34:	90 e0       	ldi	r25, 0x00	; 0
     a36:	4e d1       	rcall	.+668    	; 0xcd4 <InitUART>
	Init_ADC();
     a38:	3f cc       	rjmp	.-1922   	; 0x2b8 <Init_ADC>
     a3a:	08 95       	ret

00000a3c <MqCalibrate>:
     a3c:	8f 92       	push	r8
}

//Input:   Gas type
//Sets Ro value for selected type
void MqCalibrate(enum Gas gas){
     a3e:	9f 92       	push	r9
     a40:	af 92       	push	r10
     a42:	bf 92       	push	r11
     a44:	cf 92       	push	r12
     a46:	df 92       	push	r13
     a48:	ef 92       	push	r14
     a4a:	ff 92       	push	r15
     a4c:	1f 93       	push	r17
     a4e:	cf 93       	push	r28
     a50:	df 93       	push	r29
     a52:	18 2f       	mov	r17, r24
	SendString("Calibrating MQ sensor \n \r");
     a54:	8f e2       	ldi	r24, 0x2F	; 47
     a56:	93 e0       	ldi	r25, 0x03	; 3
     a58:	91 d1       	rcall	.+802    	; 0xd7c <SendString>
     a5a:	ca e0       	ldi	r28, 0x0A	; 10
     a5c:	d0 e0       	ldi	r29, 0x00	; 0
	int i;
	float val = 0;
     a5e:	c1 2c       	mov	r12, r1
     a60:	d1 2c       	mov	r13, r1
	for(i = 0; i < CALIBRATION_SAMPLES; i++){
		val+= MQResistanceCalculation(AnalogRead());
     a62:	76 01       	movw	r14, r12
     a64:	31 dc       	rcall	.-1950   	; 0x2c8 <AnalogRead>
     a66:	7d df       	rcall	.-262    	; 0x962 <MQResistanceCalculation>
     a68:	9b 01       	movw	r18, r22
     a6a:	ac 01       	movw	r20, r24
     a6c:	c7 01       	movw	r24, r14
     a6e:	b6 01       	movw	r22, r12
     a70:	ac d2       	rcall	.+1368   	; 0xfca <__addsf3>
     a72:	6b 01       	movw	r12, r22
     a74:	7c 01       	movw	r14, r24
     a76:	2f ef       	ldi	r18, 0xFF	; 255
     a78:	89 e6       	ldi	r24, 0x69	; 105
     a7a:	98 e1       	ldi	r25, 0x18	; 24
     a7c:	21 50       	subi	r18, 0x01	; 1
     a7e:	80 40       	sbci	r24, 0x00	; 0
     a80:	90 40       	sbci	r25, 0x00	; 0
     a82:	e1 f7       	brne	.-8      	; 0xa7c <MqCalibrate+0x40>
     a84:	00 c0       	rjmp	.+0      	; 0xa86 <MqCalibrate+0x4a>
     a86:	00 00       	nop
     a88:	21 97       	sbiw	r28, 0x01	; 1
//Sets Ro value for selected type
void MqCalibrate(enum Gas gas){
	SendString("Calibrating MQ sensor \n \r");
	int i;
	float val = 0;
	for(i = 0; i < CALIBRATION_SAMPLES; i++){
     a8a:	61 f7       	brne	.-40     	; 0xa64 <MqCalibrate+0x28>
		val+= MQResistanceCalculation(AnalogRead());
		_delay_ms(CALIBRATION_INTERVAL);
	}
	val = val/CALIBRATION_SAMPLES;
	
	if(gas == CO2){
     a8c:	11 11       	cpse	r17, r1
     a8e:	3b c0       	rjmp	.+118    	; 0xb06 <MqCalibrate+0xca>
		Ro_CO2 = val * exp( log(CO2Curve[0]/CO2_BASE_PPM) / CO2Curve[1]);
     a90:	c0 e0       	ldi	r28, 0x00	; 0
     a92:	d2 e0       	ldi	r29, 0x02	; 2
     a94:	20 e0       	ldi	r18, 0x00	; 0
     a96:	30 e8       	ldi	r19, 0x80	; 128
     a98:	4f ec       	ldi	r20, 0xCF	; 207
     a9a:	53 e4       	ldi	r21, 0x43	; 67
     a9c:	68 81       	ld	r22, Y
     a9e:	79 81       	ldd	r23, Y+1	; 0x01
     aa0:	8a 81       	ldd	r24, Y+2	; 0x02
     aa2:	9b 81       	ldd	r25, Y+3	; 0x03
     aa4:	f6 d2       	rcall	.+1516   	; 0x1092 <__divsf3>
     aa6:	b4 d4       	rcall	.+2408   	; 0x1410 <log>
     aa8:	2c 81       	ldd	r18, Y+4	; 0x04
     aaa:	3d 81       	ldd	r19, Y+5	; 0x05
     aac:	4e 81       	ldd	r20, Y+6	; 0x06
     aae:	5f 81       	ldd	r21, Y+7	; 0x07
     ab0:	f0 d2       	rcall	.+1504   	; 0x1092 <__divsf3>
     ab2:	5c d3       	rcall	.+1720   	; 0x116c <exp>
     ab4:	4b 01       	movw	r8, r22
     ab6:	5c 01       	movw	r10, r24
     ab8:	20 e0       	ldi	r18, 0x00	; 0
     aba:	30 e0       	ldi	r19, 0x00	; 0
     abc:	40 e2       	ldi	r20, 0x20	; 32
     abe:	51 e4       	ldi	r21, 0x41	; 65
     ac0:	c7 01       	movw	r24, r14
     ac2:	b6 01       	movw	r22, r12
     ac4:	e6 d2       	rcall	.+1484   	; 0x1092 <__divsf3>
     ac6:	a5 01       	movw	r20, r10
     ac8:	94 01       	movw	r18, r8
     aca:	15 d5       	rcall	.+2602   	; 0x14f6 <__mulsf3>
     acc:	60 93 0a 02 	sts	0x020A, r22	; 0x80020a <Ro_CO2>
     ad0:	70 93 0b 02 	sts	0x020B, r23	; 0x80020b <Ro_CO2+0x1>
     ad4:	80 93 0c 02 	sts	0x020C, r24	; 0x80020c <Ro_CO2+0x2>
     ad8:	90 93 0d 02 	sts	0x020D, r25	; 0x80020d <Ro_CO2+0x3>
		SendString("Calibration done for CO2 \n \r");
     adc:	89 e4       	ldi	r24, 0x49	; 73
     ade:	93 e0       	ldi	r25, 0x03	; 3
     ae0:	4d d1       	rcall	.+666    	; 0xd7c <SendString>
		SendString("Ro value: ");
     ae2:	86 e6       	ldi	r24, 0x66	; 102
     ae4:	93 e0       	ldi	r25, 0x03	; 3
		SendInteger(Ro_CO2);
     ae6:	4a d1       	rcall	.+660    	; 0xd7c <SendString>
     ae8:	60 91 0a 02 	lds	r22, 0x020A	; 0x80020a <Ro_CO2>
     aec:	70 91 0b 02 	lds	r23, 0x020B	; 0x80020b <Ro_CO2+0x1>
     af0:	80 91 0c 02 	lds	r24, 0x020C	; 0x80020c <Ro_CO2+0x2>
     af4:	90 91 0d 02 	lds	r25, 0x020D	; 0x80020d <Ro_CO2+0x3>
     af8:	65 d3       	rcall	.+1738   	; 0x11c4 <__fixsfsi>
     afa:	cb 01       	movw	r24, r22
     afc:	4d d1       	rcall	.+666    	; 0xd98 <SendInteger>
		SendString("\r \n");
     afe:	81 e7       	ldi	r24, 0x71	; 113
     b00:	93 e0       	ldi	r25, 0x03	; 3
     b02:	3c d1       	rcall	.+632    	; 0xd7c <SendString>
     b04:	0c c0       	rjmp	.+24     	; 0xb1e <MqCalibrate+0xe2>
     b06:	80 e0       	ldi	r24, 0x00	; 0
	}else{
		Ro_CO2 = -1;
     b08:	90 e0       	ldi	r25, 0x00	; 0
     b0a:	a0 e8       	ldi	r26, 0x80	; 128
     b0c:	bf eb       	ldi	r27, 0xBF	; 191
     b0e:	80 93 0a 02 	sts	0x020A, r24	; 0x80020a <Ro_CO2>
     b12:	90 93 0b 02 	sts	0x020B, r25	; 0x80020b <Ro_CO2+0x1>
     b16:	a0 93 0c 02 	sts	0x020C, r26	; 0x80020c <Ro_CO2+0x2>
     b1a:	b0 93 0d 02 	sts	0x020D, r27	; 0x80020d <Ro_CO2+0x3>
     b1e:	df 91       	pop	r29
	}
		
}
     b20:	cf 91       	pop	r28
     b22:	1f 91       	pop	r17
     b24:	ff 90       	pop	r15
     b26:	ef 90       	pop	r14
     b28:	df 90       	pop	r13
     b2a:	cf 90       	pop	r12
     b2c:	bf 90       	pop	r11
     b2e:	af 90       	pop	r10
     b30:	9f 90       	pop	r9
     b32:	8f 90       	pop	r8
     b34:	08 95       	ret

00000b36 <MQRead>:
     b36:	cf 92       	push	r12

//Output:  Rs value
float MQRead(){
     b38:	df 92       	push	r13
     b3a:	ef 92       	push	r14
     b3c:	ff 92       	push	r15
     b3e:	cf 93       	push	r28
     b40:	df 93       	push	r29
     b42:	c5 e0       	ldi	r28, 0x05	; 5
     b44:	d0 e0       	ldi	r29, 0x00	; 0
	int i;
	float rs=0;
     b46:	c1 2c       	mov	r12, r1
     b48:	d1 2c       	mov	r13, r1
     b4a:	76 01       	movw	r14, r12
		for (i=0;i<READ_SAMPLES;i++) {
		rs += MQResistanceCalculation(AnalogRead());
     b4c:	bd db       	rcall	.-2182   	; 0x2c8 <AnalogRead>
     b4e:	09 df       	rcall	.-494    	; 0x962 <MQResistanceCalculation>
     b50:	9b 01       	movw	r18, r22
     b52:	ac 01       	movw	r20, r24
     b54:	c7 01       	movw	r24, r14
     b56:	b6 01       	movw	r22, r12
     b58:	38 d2       	rcall	.+1136   	; 0xfca <__addsf3>
     b5a:	6b 01       	movw	r12, r22
     b5c:	7c 01       	movw	r14, r24
     b5e:	2f ef       	ldi	r18, 0xFF	; 255
     b60:	80 e7       	ldi	r24, 0x70	; 112
     b62:	92 e0       	ldi	r25, 0x02	; 2
     b64:	21 50       	subi	r18, 0x01	; 1
     b66:	80 40       	sbci	r24, 0x00	; 0
     b68:	90 40       	sbci	r25, 0x00	; 0
     b6a:	e1 f7       	brne	.-8      	; 0xb64 <MQRead+0x2e>
     b6c:	00 c0       	rjmp	.+0      	; 0xb6e <MQRead+0x38>
     b6e:	00 00       	nop
     b70:	21 97       	sbiw	r28, 0x01	; 1

//Output:  Rs value
float MQRead(){
	int i;
	float rs=0;
		for (i=0;i<READ_SAMPLES;i++) {
     b72:	61 f7       	brne	.-40     	; 0xb4c <MQRead+0x16>
		rs += MQResistanceCalculation(AnalogRead());
		_delay_ms(READ_INTERVAL);
	}
	rs = rs/READ_SAMPLES;
	return rs;
     b74:	20 e0       	ldi	r18, 0x00	; 0
     b76:	30 e0       	ldi	r19, 0x00	; 0
     b78:	40 ea       	ldi	r20, 0xA0	; 160
     b7a:	50 e4       	ldi	r21, 0x40	; 64
     b7c:	c7 01       	movw	r24, r14
     b7e:	b6 01       	movw	r22, r12
     b80:	88 d2       	rcall	.+1296   	; 0x1092 <__divsf3>
}
     b82:	df 91       	pop	r29
     b84:	cf 91       	pop	r28
     b86:	ff 90       	pop	r15
     b88:	ef 90       	pop	r14
     b8a:	df 90       	pop	r13
     b8c:	cf 90       	pop	r12
     b8e:	08 95       	ret

00000b90 <MQGetGasPercentage>:

//Input:   Gas type
//Output:  ppm for selected gas type
float MQGetGasPercentage(enum Gas gas){
     b90:	cf 92       	push	r12
     b92:	df 92       	push	r13
     b94:	ef 92       	push	r14
     b96:	ff 92       	push	r15
     b98:	0f 93       	push	r16
     b9a:	1f 93       	push	r17
     b9c:	cf 93       	push	r28
     b9e:	df 93       	push	r29
     ba0:	00 d0       	rcall	.+0      	; 0xba2 <MQGetGasPercentage+0x12>
     ba2:	1f 92       	push	r1
     ba4:	cd b7       	in	r28, 0x3d	; 61
     ba6:	de b7       	in	r29, 0x3e	; 62
     ba8:	18 2f       	mov	r17, r24
	volatile float Rs = MQRead();
     baa:	c5 df       	rcall	.-118    	; 0xb36 <MQRead>
     bac:	69 83       	std	Y+1, r22	; 0x01
     bae:	7a 83       	std	Y+2, r23	; 0x02
     bb0:	8b 83       	std	Y+3, r24	; 0x03
     bb2:	9c 83       	std	Y+4, r25	; 0x04
	if(gas == CO2){
     bb4:	11 11       	cpse	r17, r1
     bb6:	1e c0       	rjmp	.+60     	; 0xbf4 <MQGetGasPercentage+0x64>
		return CO2Curve[0] * pow((Rs/Ro_CO2), CO2Curve[1]);
     bb8:	69 81       	ldd	r22, Y+1	; 0x01
     bba:	7a 81       	ldd	r23, Y+2	; 0x02
     bbc:	8b 81       	ldd	r24, Y+3	; 0x03
     bbe:	9c 81       	ldd	r25, Y+4	; 0x04
     bc0:	00 e0       	ldi	r16, 0x00	; 0
     bc2:	12 e0       	ldi	r17, 0x02	; 2
     bc4:	f8 01       	movw	r30, r16
     bc6:	c4 80       	ldd	r12, Z+4	; 0x04
     bc8:	d5 80       	ldd	r13, Z+5	; 0x05
     bca:	e6 80       	ldd	r14, Z+6	; 0x06
     bcc:	f7 80       	ldd	r15, Z+7	; 0x07
     bce:	20 91 0a 02 	lds	r18, 0x020A	; 0x80020a <Ro_CO2>
     bd2:	30 91 0b 02 	lds	r19, 0x020B	; 0x80020b <Ro_CO2+0x1>
     bd6:	40 91 0c 02 	lds	r20, 0x020C	; 0x80020c <Ro_CO2+0x2>
     bda:	50 91 0d 02 	lds	r21, 0x020D	; 0x80020d <Ro_CO2+0x3>
     bde:	59 d2       	rcall	.+1202   	; 0x1092 <__divsf3>
     be0:	a7 01       	movw	r20, r14
     be2:	96 01       	movw	r18, r12
     be4:	eb d4       	rcall	.+2518   	; 0x15bc <pow>
     be6:	f8 01       	movw	r30, r16
     be8:	20 81       	ld	r18, Z
     bea:	31 81       	ldd	r19, Z+1	; 0x01
     bec:	42 81       	ldd	r20, Z+2	; 0x02
     bee:	53 81       	ldd	r21, Z+3	; 0x03
     bf0:	82 d4       	rcall	.+2308   	; 0x14f6 <__mulsf3>
     bf2:	04 c0       	rjmp	.+8      	; 0xbfc <MQGetGasPercentage+0x6c>
	}
	
	return -1;
     bf4:	60 e0       	ldi	r22, 0x00	; 0
     bf6:	70 e0       	ldi	r23, 0x00	; 0
     bf8:	80 e8       	ldi	r24, 0x80	; 128
     bfa:	9f eb       	ldi	r25, 0xBF	; 191
     bfc:	0f 90       	pop	r0
     bfe:	0f 90       	pop	r0
     c00:	0f 90       	pop	r0
     c02:	0f 90       	pop	r0
     c04:	df 91       	pop	r29
     c06:	cf 91       	pop	r28
     c08:	1f 91       	pop	r17
     c0a:	0f 91       	pop	r16
     c0c:	ff 90       	pop	r15
     c0e:	ef 90       	pop	r14
     c10:	df 90       	pop	r13
     c12:	cf 90       	pop	r12
     c14:	08 95       	ret

00000c16 <toDecimal>:
	i2c_write(toBinary(dateTime->day));
	i2c_write(toBinary(dateTime->date));
	i2c_write(toBinary(dateTime->month));
	i2c_write(toBinary(dateTime->year - 2000));
	i2c_stop();
}
     c16:	98 2f       	mov	r25, r24
     c18:	92 95       	swap	r25
     c1a:	9f 70       	andi	r25, 0x0F	; 15
     c1c:	99 0f       	add	r25, r25
     c1e:	29 2f       	mov	r18, r25
     c20:	22 0f       	add	r18, r18
     c22:	22 0f       	add	r18, r18
     c24:	92 0f       	add	r25, r18
     c26:	8f 70       	andi	r24, 0x0F	; 15
     c28:	89 0f       	add	r24, r25
     c2a:	08 95       	ret

00000c2c <readDS3231>:
     c2c:	cf 93       	push	r28
     c2e:	df 93       	push	r29
     c30:	ec 01       	movw	r28, r24
     c32:	6e de       	rcall	.-804    	; 0x910 <i2c_start>
     c34:	80 ed       	ldi	r24, 0xD0	; 208
     c36:	75 de       	rcall	.-790    	; 0x922 <i2c_write>
     c38:	80 e0       	ldi	r24, 0x00	; 0
     c3a:	73 de       	rcall	.-794    	; 0x922 <i2c_write>
     c3c:	8e de       	rcall	.-740    	; 0x95a <i2c_stop>
     c3e:	68 de       	rcall	.-816    	; 0x910 <i2c_start>
     c40:	81 ed       	ldi	r24, 0xD1	; 209
     c42:	6f de       	rcall	.-802    	; 0x922 <i2c_write>
     c44:	80 e0       	ldi	r24, 0x00	; 0
     c46:	78 de       	rcall	.-784    	; 0x938 <i2c_read>
     c48:	e6 df       	rcall	.-52     	; 0xc16 <toDecimal>
     c4a:	88 83       	st	Y, r24
     c4c:	80 e0       	ldi	r24, 0x00	; 0
     c4e:	74 de       	rcall	.-792    	; 0x938 <i2c_read>
     c50:	e2 df       	rcall	.-60     	; 0xc16 <toDecimal>
     c52:	89 83       	std	Y+1, r24	; 0x01
     c54:	80 e0       	ldi	r24, 0x00	; 0
     c56:	70 de       	rcall	.-800    	; 0x938 <i2c_read>
     c58:	de df       	rcall	.-68     	; 0xc16 <toDecimal>
     c5a:	8a 83       	std	Y+2, r24	; 0x02
     c5c:	80 e0       	ldi	r24, 0x00	; 0
     c5e:	6c de       	rcall	.-808    	; 0x938 <i2c_read>
     c60:	da df       	rcall	.-76     	; 0xc16 <toDecimal>
     c62:	8b 83       	std	Y+3, r24	; 0x03
     c64:	80 e0       	ldi	r24, 0x00	; 0
     c66:	68 de       	rcall	.-816    	; 0x938 <i2c_read>
     c68:	d6 df       	rcall	.-84     	; 0xc16 <toDecimal>
     c6a:	8c 83       	std	Y+4, r24	; 0x04
     c6c:	80 e0       	ldi	r24, 0x00	; 0
     c6e:	64 de       	rcall	.-824    	; 0x938 <i2c_read>
     c70:	d2 df       	rcall	.-92     	; 0xc16 <toDecimal>
     c72:	8d 83       	std	Y+5, r24	; 0x05
     c74:	81 e0       	ldi	r24, 0x01	; 1
     c76:	60 de       	rcall	.-832    	; 0x938 <i2c_read>
     c78:	ce df       	rcall	.-100    	; 0xc16 <toDecimal>
     c7a:	90 e0       	ldi	r25, 0x00	; 0
     c7c:	80 53       	subi	r24, 0x30	; 48
     c7e:	98 4f       	sbci	r25, 0xF8	; 248
     c80:	9f 83       	std	Y+7, r25	; 0x07
     c82:	8e 83       	std	Y+6, r24	; 0x06
     c84:	6a de       	rcall	.-812    	; 0x95a <i2c_stop>
     c86:	df 91       	pop	r29
     c88:	cf 91       	pop	r28
     c8a:	08 95       	ret

00000c8c <getDay>:

char* getDay(uint8_t dayNum){
	switch(dayNum) {
     c8c:	90 e0       	ldi	r25, 0x00	; 0
     c8e:	fc 01       	movw	r30, r24
     c90:	31 97       	sbiw	r30, 0x01	; 1
     c92:	e7 30       	cpi	r30, 0x07	; 7
     c94:	f1 05       	cpc	r31, r1
     c96:	a8 f4       	brcc	.+42     	; 0xcc2 <getDay+0x36>
     c98:	88 27       	eor	r24, r24
     c9a:	ee 58       	subi	r30, 0x8E	; 142
     c9c:	ff 4f       	sbci	r31, 0xFF	; 255
     c9e:	8f 4f       	sbci	r24, 0xFF	; 255
     ca0:	0c 94 e3 0e 	jmp	0x1dc6	; 0x1dc6 <__tablejump2__>
		case 1:
			return "Mon";
		break;
		case 2:
			return "Tue";
     ca4:	29 e7       	ldi	r18, 0x79	; 121
     ca6:	33 e0       	ldi	r19, 0x03	; 3
     ca8:	12 c0       	rjmp	.+36     	; 0xcce <getDay+0x42>
		break;
		case 3:
			return "Wed";
		break;
		case 4:
			return "Thu";
     caa:	21 e8       	ldi	r18, 0x81	; 129
     cac:	33 e0       	ldi	r19, 0x03	; 3
     cae:	0f c0       	rjmp	.+30     	; 0xcce <getDay+0x42>
		break;
		case 5:
			return "Fri";
     cb0:	25 e8       	ldi	r18, 0x85	; 133
     cb2:	33 e0       	ldi	r19, 0x03	; 3
     cb4:	0c c0       	rjmp	.+24     	; 0xcce <getDay+0x42>
		break;
		case 6:
			return "Sat";
     cb6:	29 e8       	ldi	r18, 0x89	; 137
     cb8:	33 e0       	ldi	r19, 0x03	; 3
     cba:	09 c0       	rjmp	.+18     	; 0xcce <getDay+0x42>
		break;
		case 7:
			return "Sun";
     cbc:	2d e8       	ldi	r18, 0x8D	; 141
     cbe:	33 e0       	ldi	r19, 0x03	; 3
     cc0:	06 c0       	rjmp	.+12     	; 0xcce <getDay+0x42>
		break;
	}
     cc2:	08 95       	ret
}

char* getDay(uint8_t dayNum){
	switch(dayNum) {
		case 1:
			return "Mon";
     cc4:	25 e7       	ldi	r18, 0x75	; 117
     cc6:	33 e0       	ldi	r19, 0x03	; 3
     cc8:	02 c0       	rjmp	.+4      	; 0xcce <getDay+0x42>
		break;
		case 2:
			return "Tue";
		break;
		case 3:
			return "Wed";
     cca:	2d e7       	ldi	r18, 0x7D	; 125
     ccc:	33 e0       	ldi	r19, 0x03	; 3
     cce:	82 2f       	mov	r24, r18
     cd0:	93 2f       	mov	r25, r19
		break;
		case 7:
			return "Sun";
		break;
	}
     cd2:	08 95       	ret

00000cd4 <InitUART>:
  // Wait for new character received
  while ( (UCSR0A & (1<<7)) == 0 )
  {}                        
  // Then return it
  return UDR0;
}
     cd4:	0f 93       	push	r16
     cd6:	1f 93       	push	r17
     cd8:	52 2f       	mov	r21, r18
     cda:	8b 01       	movw	r16, r22
     cdc:	9c 01       	movw	r18, r24
     cde:	0c 52       	subi	r16, 0x2C	; 44
     ce0:	11 40       	sbci	r17, 0x01	; 1
     ce2:	21 09       	sbc	r18, r1
     ce4:	31 09       	sbc	r19, r1
     ce6:	05 3d       	cpi	r16, 0xD5	; 213
     ce8:	10 4c       	sbci	r17, 0xC0	; 192
     cea:	21 40       	sbci	r18, 0x01	; 1
     cec:	31 05       	cpc	r19, r1
     cee:	d8 f5       	brcc	.+118    	; 0xd66 <InitUART+0x92>
     cf0:	45 50       	subi	r20, 0x05	; 5
     cf2:	44 30       	cpi	r20, 0x04	; 4
     cf4:	c0 f5       	brcc	.+112    	; 0xd66 <InitUART+0x92>
     cf6:	20 e2       	ldi	r18, 0x20	; 32
     cf8:	20 93 c0 00 	sts	0x00C0, r18	; 0x8000c0 <__TEXT_REGION_LENGTH__+0x7000c0>
     cfc:	28 e1       	ldi	r18, 0x18	; 24
     cfe:	20 93 c1 00 	sts	0x00C1, r18	; 0x8000c1 <__TEXT_REGION_LENGTH__+0x7000c1>
     d02:	44 0f       	add	r20, r20
     d04:	40 93 c2 00 	sts	0x00C2, r20	; 0x8000c2 <__TEXT_REGION_LENGTH__+0x7000c2>
     d08:	55 34       	cpi	r21, 0x45	; 69
     d0a:	31 f4       	brne	.+12     	; 0xd18 <InitUART+0x44>
     d0c:	e2 ec       	ldi	r30, 0xC2	; 194
     d0e:	f0 e0       	ldi	r31, 0x00	; 0
     d10:	20 81       	ld	r18, Z
     d12:	20 62       	ori	r18, 0x20	; 32
     d14:	20 83       	st	Z, r18
     d16:	07 c0       	rjmp	.+14     	; 0xd26 <InitUART+0x52>
     d18:	5f 34       	cpi	r21, 0x4F	; 79
     d1a:	29 f4       	brne	.+10     	; 0xd26 <InitUART+0x52>
     d1c:	e2 ec       	ldi	r30, 0xC2	; 194
     d1e:	f0 e0       	ldi	r31, 0x00	; 0
     d20:	20 81       	ld	r18, Z
     d22:	20 63       	ori	r18, 0x30	; 48
     d24:	20 83       	st	Z, r18
     d26:	dc 01       	movw	r26, r24
     d28:	cb 01       	movw	r24, r22
     d2a:	88 0f       	add	r24, r24
     d2c:	99 1f       	adc	r25, r25
     d2e:	aa 1f       	adc	r26, r26
     d30:	bb 1f       	adc	r27, r27
     d32:	88 0f       	add	r24, r24
     d34:	99 1f       	adc	r25, r25
     d36:	aa 1f       	adc	r26, r26
     d38:	bb 1f       	adc	r27, r27
     d3a:	9c 01       	movw	r18, r24
     d3c:	ad 01       	movw	r20, r26
     d3e:	22 0f       	add	r18, r18
     d40:	33 1f       	adc	r19, r19
     d42:	44 1f       	adc	r20, r20
     d44:	55 1f       	adc	r21, r21
     d46:	22 0f       	add	r18, r18
     d48:	33 1f       	adc	r19, r19
     d4a:	44 1f       	adc	r20, r20
     d4c:	55 1f       	adc	r21, r21
     d4e:	60 e0       	ldi	r22, 0x00	; 0
     d50:	74 e2       	ldi	r23, 0x24	; 36
     d52:	84 ef       	ldi	r24, 0xF4	; 244
     d54:	90 e0       	ldi	r25, 0x00	; 0
     d56:	0e 94 c1 0e 	call	0x1d82	; 0x1d82 <__udivmodsi4>
     d5a:	21 50       	subi	r18, 0x01	; 1
     d5c:	31 09       	sbc	r19, r1
     d5e:	30 93 c5 00 	sts	0x00C5, r19	; 0x8000c5 <__TEXT_REGION_LENGTH__+0x7000c5>
     d62:	20 93 c4 00 	sts	0x00C4, r18	; 0x8000c4 <__TEXT_REGION_LENGTH__+0x7000c4>
     d66:	1f 91       	pop	r17
     d68:	0f 91       	pop	r16
     d6a:	08 95       	ret

00000d6c <SendChar>:
	Tegn : Character for sending. 
*************************************************************************/
void SendChar(char Tegn)
{
  // Wait for transmitter register empty (ready for new character)
  while ( (UCSR0A & (1<<5)) == 0 )
     d6c:	e0 ec       	ldi	r30, 0xC0	; 192
     d6e:	f0 e0       	ldi	r31, 0x00	; 0
     d70:	90 81       	ld	r25, Z
     d72:	95 ff       	sbrs	r25, 5
     d74:	fd cf       	rjmp	.-6      	; 0xd70 <SendChar+0x4>
  {}
  // Then send the character
  UDR0 = Tegn;
     d76:	80 93 c6 00 	sts	0x00C6, r24	; 0x8000c6 <__TEXT_REGION_LENGTH__+0x7000c6>
     d7a:	08 95       	ret

00000d7c <SendString>:
Sends 0 terminated string.
Parameter:
   Streng: Pointer to the string. 
*************************************************************************/
void SendString(char* Streng)
{
     d7c:	cf 93       	push	r28
     d7e:	df 93       	push	r29
     d80:	ec 01       	movw	r28, r24
  // Repeat until zero-termination
  while (*Streng != 0)
     d82:	88 81       	ld	r24, Y
     d84:	88 23       	and	r24, r24
     d86:	29 f0       	breq	.+10     	; 0xd92 <SendString+0x16>
     d88:	21 96       	adiw	r28, 0x01	; 1
  {
    // Send the character pointed to by "Streng"
    SendChar(*Streng);
     d8a:	f0 df       	rcall	.-32     	; 0xd6c <SendChar>
   Streng: Pointer to the string. 
*************************************************************************/
void SendString(char* Streng)
{
  // Repeat until zero-termination
  while (*Streng != 0)
     d8c:	89 91       	ld	r24, Y+
     d8e:	81 11       	cpse	r24, r1
     d90:	fc cf       	rjmp	.-8      	; 0xd8a <SendString+0xe>
    // Send the character pointed to by "Streng"
    SendChar(*Streng);
    // Advance the pointer one step
    Streng++;
  }
}
     d92:	df 91       	pop	r29
     d94:	cf 91       	pop	r28
     d96:	08 95       	ret

00000d98 <SendInteger>:
Makes use of the C standard library <stdlib.h>.
Parameter:
    Tal: The integer to be converted and sent. 
*************************************************************************/
void SendInteger(int Tal)
{
     d98:	cf 93       	push	r28
     d9a:	df 93       	push	r29
     d9c:	cd b7       	in	r28, 0x3d	; 61
     d9e:	de b7       	in	r29, 0x3e	; 62
     da0:	27 97       	sbiw	r28, 0x07	; 7
     da2:	0f b6       	in	r0, 0x3f	; 63
     da4:	f8 94       	cli
     da6:	de bf       	out	0x3e, r29	; 62
     da8:	0f be       	out	0x3f, r0	; 63
     daa:	cd bf       	out	0x3d, r28	; 61
     dac:	4a e0       	ldi	r20, 0x0A	; 10
     dae:	be 01       	movw	r22, r28
     db0:	6f 5f       	subi	r22, 0xFF	; 255
     db2:	7f 4f       	sbci	r23, 0xFF	; 255
     db4:	0e 94 d9 0f 	call	0x1fb2	; 0x1fb2 <__itoa_ncheck>
char array[7];
  // Convert the integer to an ASCII string (array), radix = 10 
  itoa(Tal, array, 10);
  // - then send the string
  SendString(array);
     db8:	ce 01       	movw	r24, r28
     dba:	01 96       	adiw	r24, 0x01	; 1
     dbc:	df df       	rcall	.-66     	; 0xd7c <SendString>
}
     dbe:	27 96       	adiw	r28, 0x07	; 7
     dc0:	0f b6       	in	r0, 0x3f	; 63
     dc2:	f8 94       	cli
     dc4:	de bf       	out	0x3e, r29	; 62
     dc6:	0f be       	out	0x3f, r0	; 63
     dc8:	cd bf       	out	0x3d, r28	; 61
     dca:	df 91       	pop	r29
     dcc:	cf 91       	pop	r28
     dce:	08 95       	ret

00000dd0 <addCustomSignsToDisp>:
#include "Drivers/Display/lcd162.h"
#include "Drivers/UART/uart.h"
#include "Drivers/I2C/i2c.h"
#include "Drivers/MQ135/MQ_135.h"

void addCustomSignsToDisp(){
     dd0:	cf 93       	push	r28
     dd2:	df 93       	push	r29
     dd4:	cd b7       	in	r28, 0x3d	; 61
     dd6:	de b7       	in	r29, 0x3e	; 62
     dd8:	60 97       	sbiw	r28, 0x10	; 16
     dda:	0f b6       	in	r0, 0x3f	; 63
     ddc:	f8 94       	cli
     dde:	de bf       	out	0x3e, r29	; 62
     de0:	0f be       	out	0x3f, r0	; 63
     de2:	cd bf       	out	0x3d, r28	; 61
	unsigned char degree[8] = {
     de4:	88 e0       	ldi	r24, 0x08	; 8
     de6:	ee e0       	ldi	r30, 0x0E	; 14
     de8:	f2 e0       	ldi	r31, 0x02	; 2
     dea:	de 01       	movw	r26, r28
     dec:	11 96       	adiw	r26, 0x01	; 1
     dee:	01 90       	ld	r0, Z+
     df0:	0d 92       	st	X+, r0
     df2:	8a 95       	dec	r24
     df4:	e1 f7       	brne	.-8      	; 0xdee <addCustomSignsToDisp+0x1e>
		0b00000,
		0b00000,
		0b00000,
		0b00000,
	};
	LCDLoadUDC(0, degree);
     df6:	be 01       	movw	r22, r28
     df8:	6f 5f       	subi	r22, 0xFF	; 255
     dfa:	7f 4f       	sbci	r23, 0xFF	; 255
     dfc:	80 e0       	ldi	r24, 0x00	; 0
     dfe:	65 dd       	rcall	.-1334   	; 0x8ca <LCDLoadUDC>
	unsigned char droplet[8] = {
     e00:	88 e0       	ldi	r24, 0x08	; 8
     e02:	e6 e1       	ldi	r30, 0x16	; 22
     e04:	f2 e0       	ldi	r31, 0x02	; 2
     e06:	de 01       	movw	r26, r28
     e08:	19 96       	adiw	r26, 0x09	; 9
     e0a:	01 90       	ld	r0, Z+
     e0c:	0d 92       	st	X+, r0
     e0e:	8a 95       	dec	r24
     e10:	e1 f7       	brne	.-8      	; 0xe0a <addCustomSignsToDisp+0x3a>
		0b10001,
		0b01110,
		0b00000,
		0b00000
	};
	LCDLoadUDC(1, droplet);
     e12:	be 01       	movw	r22, r28
     e14:	67 5f       	subi	r22, 0xF7	; 247
     e16:	7f 4f       	sbci	r23, 0xFF	; 255
     e18:	81 e0       	ldi	r24, 0x01	; 1
     e1a:	57 dd       	rcall	.-1362   	; 0x8ca <LCDLoadUDC>
}
     e1c:	60 96       	adiw	r28, 0x10	; 16
     e1e:	0f b6       	in	r0, 0x3f	; 63
     e20:	f8 94       	cli
     e22:	de bf       	out	0x3e, r29	; 62
     e24:	0f be       	out	0x3f, r0	; 63
     e26:	cd bf       	out	0x3d, r28	; 61
     e28:	df 91       	pop	r29
     e2a:	cf 91       	pop	r28
     e2c:	08 95       	ret

00000e2e <displayTimeStamp>:

void displayTimeStamp(struct dateTime* timeStamp){
     e2e:	cf 93       	push	r28
     e30:	df 93       	push	r29
     e32:	ec 01       	movw	r28, r24
	//display date
	LCDDispString(getDay(timeStamp->day));LCDDispChar(' ');
     e34:	8b 81       	ldd	r24, Y+3	; 0x03
     e36:	2a df       	rcall	.-428    	; 0xc8c <getDay>
     e38:	1e dd       	rcall	.-1476   	; 0x876 <LCDDispString>
     e3a:	80 e2       	ldi	r24, 0x20	; 32
     e3c:	1a dd       	rcall	.-1484   	; 0x872 <LCDDispChar>
	if (timeStamp->date < 10)
     e3e:	8c 81       	ldd	r24, Y+4	; 0x04
     e40:	8a 30       	cpi	r24, 0x0A	; 10
	{
		LCDDispChar('0');
     e42:	10 f4       	brcc	.+4      	; 0xe48 <displayTimeStamp+0x1a>
     e44:	80 e3       	ldi	r24, 0x30	; 48
	}
	LCDDispInteger(timeStamp->date);LCDDispChar('/');
     e46:	15 dd       	rcall	.-1494   	; 0x872 <LCDDispChar>
     e48:	8c 81       	ldd	r24, Y+4	; 0x04
     e4a:	90 e0       	ldi	r25, 0x00	; 0
     e4c:	22 dd       	rcall	.-1468   	; 0x892 <LCDDispInteger>
     e4e:	8f e2       	ldi	r24, 0x2F	; 47
	if (timeStamp->month < 10)
     e50:	10 dd       	rcall	.-1504   	; 0x872 <LCDDispChar>
     e52:	8d 81       	ldd	r24, Y+5	; 0x05
	{
		LCDDispChar('0');
     e54:	8a 30       	cpi	r24, 0x0A	; 10
     e56:	10 f4       	brcc	.+4      	; 0xe5c <displayTimeStamp+0x2e>
	}
	LCDDispInteger(timeStamp->month);LCDDispChar('-');
     e58:	80 e3       	ldi	r24, 0x30	; 48
     e5a:	0b dd       	rcall	.-1514   	; 0x872 <LCDDispChar>
     e5c:	8d 81       	ldd	r24, Y+5	; 0x05
     e5e:	90 e0       	ldi	r25, 0x00	; 0
     e60:	18 dd       	rcall	.-1488   	; 0x892 <LCDDispInteger>
	LCDDispInteger(timeStamp->year);
     e62:	8d e2       	ldi	r24, 0x2D	; 45
     e64:	06 dd       	rcall	.-1524   	; 0x872 <LCDDispChar>
     e66:	8e 81       	ldd	r24, Y+6	; 0x06
	LCDGotoXY(0,1);
     e68:	9f 81       	ldd	r25, Y+7	; 0x07
     e6a:	13 dd       	rcall	.-1498   	; 0x892 <LCDDispInteger>
	
	//Display time
	if (timeStamp->hours < 10)
     e6c:	61 e0       	ldi	r22, 0x01	; 1
     e6e:	80 e0       	ldi	r24, 0x00	; 0
     e70:	f9 dc       	rcall	.-1550   	; 0x864 <LCDGotoXY>
	{
		LCDDispChar('0');
     e72:	8a 81       	ldd	r24, Y+2	; 0x02
     e74:	8a 30       	cpi	r24, 0x0A	; 10
	}
	LCDDispInteger(timeStamp->hours);LCDDispChar(':');
     e76:	10 f4       	brcc	.+4      	; 0xe7c <displayTimeStamp+0x4e>
     e78:	80 e3       	ldi	r24, 0x30	; 48
     e7a:	fb dc       	rcall	.-1546   	; 0x872 <LCDDispChar>
     e7c:	8a 81       	ldd	r24, Y+2	; 0x02
     e7e:	90 e0       	ldi	r25, 0x00	; 0
	if (timeStamp->minutes < 10)
     e80:	08 dd       	rcall	.-1520   	; 0x892 <LCDDispInteger>
     e82:	8a e3       	ldi	r24, 0x3A	; 58
	{
		LCDDispChar('0');
     e84:	f6 dc       	rcall	.-1556   	; 0x872 <LCDDispChar>
     e86:	89 81       	ldd	r24, Y+1	; 0x01
	}
	LCDDispInteger(timeStamp->minutes);LCDDispChar(':');
     e88:	8a 30       	cpi	r24, 0x0A	; 10
     e8a:	10 f4       	brcc	.+4      	; 0xe90 <displayTimeStamp+0x62>
     e8c:	80 e3       	ldi	r24, 0x30	; 48
     e8e:	f1 dc       	rcall	.-1566   	; 0x872 <LCDDispChar>
     e90:	89 81       	ldd	r24, Y+1	; 0x01
     e92:	90 e0       	ldi	r25, 0x00	; 0
     e94:	fe dc       	rcall	.-1540   	; 0x892 <LCDDispInteger>
	if (timeStamp->seconds < 10)
     e96:	8a e3       	ldi	r24, 0x3A	; 58
     e98:	ec dc       	rcall	.-1576   	; 0x872 <LCDDispChar>
     e9a:	88 81       	ld	r24, Y
	{
		LCDDispChar('0');
     e9c:	8a 30       	cpi	r24, 0x0A	; 10
     e9e:	10 f4       	brcc	.+4      	; 0xea4 <displayTimeStamp+0x76>
     ea0:	80 e3       	ldi	r24, 0x30	; 48
	}
	LCDDispInteger(timeStamp->seconds);
     ea2:	e7 dc       	rcall	.-1586   	; 0x872 <LCDDispChar>
     ea4:	88 81       	ld	r24, Y
     ea6:	90 e0       	ldi	r25, 0x00	; 0
     ea8:	f4 dc       	rcall	.-1560   	; 0x892 <LCDDispInteger>
}
     eaa:	df 91       	pop	r29
     eac:	cf 91       	pop	r28
     eae:	08 95       	ret

00000eb0 <main>:

int main(void)
{
     eb0:	cf 93       	push	r28
     eb2:	df 93       	push	r29
     eb4:	cd b7       	in	r28, 0x3d	; 61
     eb6:	de b7       	in	r29, 0x3e	; 62
     eb8:	6d 97       	sbiw	r28, 0x1d	; 29
     eba:	0f b6       	in	r0, 0x3f	; 63
     ebc:	f8 94       	cli
     ebe:	de bf       	out	0x3e, r29	; 62
     ec0:	0f be       	out	0x3f, r0	; 63
     ec2:	cd bf       	out	0x3d, r28	; 61
    InitUART(9600, 8, 'N');
     ec4:	2e e4       	ldi	r18, 0x4E	; 78
     ec6:	48 e0       	ldi	r20, 0x08	; 8
     ec8:	60 e8       	ldi	r22, 0x80	; 128
     eca:	75 e2       	ldi	r23, 0x25	; 37
     ecc:	80 e0       	ldi	r24, 0x00	; 0
     ece:	90 e0       	ldi	r25, 0x00	; 0
     ed0:	01 df       	rcall	.-510    	; 0xcd4 <InitUART>
    initAM2302(false);
     ed2:	80 e0       	ldi	r24, 0x00	; 0
	i2c_init();
     ed4:	49 da       	rcall	.-2926   	; 0x368 <initAM2302>
	LCDInit();
     ed6:	13 dd       	rcall	.-1498   	; 0x8fe <i2c_init>
	addCustomSignsToDisp();
     ed8:	8e dc       	rcall	.-1764   	; 0x7f6 <LCDInit>
     eda:	7a df       	rcall	.-268    	; 0xdd0 <addCustomSignsToDisp>
	Init_MQ();
     edc:	a6 dd       	rcall	.-1204   	; 0xa2a <Init_MQ>
     ede:	80 e0       	ldi	r24, 0x00	; 0
	MqCalibrate(CO2);
     ee0:	ad dd       	rcall	.-1190   	; 0xa3c <MqCalibrate>
     ee2:	01 e9       	ldi	r16, 0x91	; 145
     ee4:	13 e0       	ldi	r17, 0x03	; 3
	
    while (1) 
    {
		//read gas data
		char co2Ppm[7];
		sprintf(co2Ppm, "%.1f", MQGetGasPercentage(CO2));
     ee6:	5e 01       	movw	r10, r28
     ee8:	27 e1       	ldi	r18, 0x17	; 23
     eea:	a2 0e       	add	r10, r18
     eec:	b1 1c       	adc	r11, r1
     eee:	6e 01       	movw	r12, r28
     ef0:	80 e1       	ldi	r24, 0x10	; 16
		
		//read temp and hum data		
		char hum[7];
		sprintf(hum, "%.1f", readHumidity());
     ef2:	c8 0e       	add	r12, r24
     ef4:	d1 1c       	adc	r13, r1
     ef6:	7e 01       	movw	r14, r28
		char temp[7];
		sprintf(temp, "%.1f", readTemperature());
     ef8:	99 e0       	ldi	r25, 0x09	; 9
     efa:	e9 0e       	add	r14, r25
     efc:	f1 1c       	adc	r15, r1
     efe:	80 e0       	ldi	r24, 0x00	; 0
	
    while (1) 
    {
		//read gas data
		char co2Ppm[7];
		sprintf(co2Ppm, "%.1f", MQGetGasPercentage(CO2));
     f00:	47 de       	rcall	.-882    	; 0xb90 <MQGetGasPercentage>
     f02:	9f 93       	push	r25
     f04:	8f 93       	push	r24
     f06:	7f 93       	push	r23
     f08:	6f 93       	push	r22
     f0a:	1f 93       	push	r17
     f0c:	0f 93       	push	r16
     f0e:	bf 92       	push	r11
     f10:	af 92       	push	r10
     f12:	0e 94 38 10 	call	0x2070	; 0x2070 <sprintf>
     f16:	cf db       	rcall	.-2146   	; 0x6b6 <readHumidity>
		
		//read temp and hum data		
		char hum[7];
		sprintf(hum, "%.1f", readHumidity());
     f18:	9f 93       	push	r25
     f1a:	8f 93       	push	r24
     f1c:	7f 93       	push	r23
     f1e:	6f 93       	push	r22
     f20:	1f 93       	push	r17
     f22:	0f 93       	push	r16
     f24:	df 92       	push	r13
     f26:	cf 92       	push	r12
     f28:	0e 94 38 10 	call	0x2070	; 0x2070 <sprintf>
     f2c:	d6 db       	rcall	.-2132   	; 0x6da <readTemperature>
		char temp[7];
		sprintf(temp, "%.1f", readTemperature());
     f2e:	9f 93       	push	r25
     f30:	8f 93       	push	r24
     f32:	7f 93       	push	r23
     f34:	6f 93       	push	r22
     f36:	1f 93       	push	r17
     f38:	0f 93       	push	r16
     f3a:	ff 92       	push	r15
     f3c:	ef 92       	push	r14
     f3e:	0e 94 38 10 	call	0x2070	; 0x2070 <sprintf>
		
		//read timestamp
		struct dateTime timeStamp;
		readDS3231(&timeStamp);
     f42:	ce 01       	movw	r24, r28
     f44:	01 96       	adiw	r24, 0x01	; 1
     f46:	72 de       	rcall	.-796    	; 0xc2c <readDS3231>
		
		//output to display
		//Display timestamp
		LCDClear();
     f48:	8a dc       	rcall	.-1772   	; 0x85e <LCDClear>
     f4a:	ce 01       	movw	r24, r28
		displayTimeStamp(&timeStamp);
     f4c:	01 96       	adiw	r24, 0x01	; 1
     f4e:	6f df       	rcall	.-290    	; 0xe2e <displayTimeStamp>
     f50:	2f ef       	ldi	r18, 0xFF	; 255
     f52:	8b e7       	ldi	r24, 0x7B	; 123
     f54:	92 e9       	ldi	r25, 0x92	; 146
     f56:	21 50       	subi	r18, 0x01	; 1
     f58:	80 40       	sbci	r24, 0x00	; 0
     f5a:	90 40       	sbci	r25, 0x00	; 0
		_delay_ms(3000);
		
		//Display Humidity and Temperature
		LCDClear();
     f5c:	e1 f7       	brne	.-8      	; 0xf56 <main+0xa6>
		LCDDispString(hum);LCDDispChar('%');LCDDispChar(1);LCDDispChar(' ');
     f5e:	00 c0       	rjmp	.+0      	; 0xf60 <main+0xb0>
     f60:	00 00       	nop
     f62:	7d dc       	rcall	.-1798   	; 0x85e <LCDClear>
     f64:	c6 01       	movw	r24, r12
     f66:	87 dc       	rcall	.-1778   	; 0x876 <LCDDispString>
     f68:	85 e2       	ldi	r24, 0x25	; 37
     f6a:	83 dc       	rcall	.-1786   	; 0x872 <LCDDispChar>
     f6c:	81 e0       	ldi	r24, 0x01	; 1
     f6e:	81 dc       	rcall	.-1790   	; 0x872 <LCDDispChar>
     f70:	80 e2       	ldi	r24, 0x20	; 32
		LCDGotoXY(0,1);
     f72:	7f dc       	rcall	.-1794   	; 0x872 <LCDDispChar>
     f74:	61 e0       	ldi	r22, 0x01	; 1
     f76:	80 e0       	ldi	r24, 0x00	; 0
		LCDDispString(temp);LCDDispChar(0);LCDDispChar('C');
     f78:	75 dc       	rcall	.-1814   	; 0x864 <LCDGotoXY>
     f7a:	c7 01       	movw	r24, r14
     f7c:	7c dc       	rcall	.-1800   	; 0x876 <LCDDispString>
     f7e:	80 e0       	ldi	r24, 0x00	; 0
     f80:	78 dc       	rcall	.-1808   	; 0x872 <LCDDispChar>
     f82:	83 e4       	ldi	r24, 0x43	; 67
     f84:	76 dc       	rcall	.-1812   	; 0x872 <LCDDispChar>
     f86:	2f ef       	ldi	r18, 0xFF	; 255
     f88:	8b e7       	ldi	r24, 0x7B	; 123
     f8a:	92 e9       	ldi	r25, 0x92	; 146
     f8c:	21 50       	subi	r18, 0x01	; 1
     f8e:	80 40       	sbci	r24, 0x00	; 0
     f90:	90 40       	sbci	r25, 0x00	; 0
     f92:	e1 f7       	brne	.-8      	; 0xf8c <main+0xdc>
     f94:	00 c0       	rjmp	.+0      	; 0xf96 <main+0xe6>
     f96:	00 00       	nop
		_delay_ms(3000);
		
		//Display Gas concentration
		LCDClear();
     f98:	62 dc       	rcall	.-1852   	; 0x85e <LCDClear>
     f9a:	86 e9       	ldi	r24, 0x96	; 150
		LCDDispString("CO2: ");
     f9c:	93 e0       	ldi	r25, 0x03	; 3
     f9e:	6b dc       	rcall	.-1834   	; 0x876 <LCDDispString>
     fa0:	c5 01       	movw	r24, r10
     fa2:	69 dc       	rcall	.-1838   	; 0x876 <LCDDispString>
		LCDDispString(co2Ppm);LCDDispString("ppm");
     fa4:	8c e9       	ldi	r24, 0x9C	; 156
     fa6:	93 e0       	ldi	r25, 0x03	; 3
     fa8:	66 dc       	rcall	.-1844   	; 0x876 <LCDDispString>
     faa:	2f ef       	ldi	r18, 0xFF	; 255
     fac:	8b e7       	ldi	r24, 0x7B	; 123
     fae:	92 e9       	ldi	r25, 0x92	; 146
     fb0:	21 50       	subi	r18, 0x01	; 1
     fb2:	80 40       	sbci	r24, 0x00	; 0
     fb4:	90 40       	sbci	r25, 0x00	; 0
     fb6:	e1 f7       	brne	.-8      	; 0xfb0 <main+0x100>
     fb8:	00 c0       	rjmp	.+0      	; 0xfba <main+0x10a>
     fba:	00 00       	nop
     fbc:	0f b6       	in	r0, 0x3f	; 63
     fbe:	f8 94       	cli
     fc0:	de bf       	out	0x3e, r29	; 62
     fc2:	0f be       	out	0x3f, r0	; 63
     fc4:	cd bf       	out	0x3d, r28	; 61
     fc6:	9b cf       	rjmp	.-202    	; 0xefe <main+0x4e>

00000fc8 <__subsf3>:
     fc8:	50 58       	subi	r21, 0x80	; 128

00000fca <__addsf3>:
     fca:	bb 27       	eor	r27, r27
     fcc:	aa 27       	eor	r26, r26
     fce:	0e d0       	rcall	.+28     	; 0xfec <__addsf3x>
     fd0:	a3 c1       	rjmp	.+838    	; 0x1318 <__fp_round>
     fd2:	94 d1       	rcall	.+808    	; 0x12fc <__fp_pscA>
     fd4:	30 f0       	brcs	.+12     	; 0xfe2 <__addsf3+0x18>
     fd6:	99 d1       	rcall	.+818    	; 0x130a <__fp_pscB>
     fd8:	20 f0       	brcs	.+8      	; 0xfe2 <__addsf3+0x18>
     fda:	31 f4       	brne	.+12     	; 0xfe8 <__addsf3+0x1e>
     fdc:	9f 3f       	cpi	r25, 0xFF	; 255
     fde:	11 f4       	brne	.+4      	; 0xfe4 <__addsf3+0x1a>
     fe0:	1e f4       	brtc	.+6      	; 0xfe8 <__addsf3+0x1e>
     fe2:	64 c1       	rjmp	.+712    	; 0x12ac <__fp_nan>
     fe4:	0e f4       	brtc	.+2      	; 0xfe8 <__addsf3+0x1e>
     fe6:	e0 95       	com	r30
     fe8:	e7 fb       	bst	r30, 7
     fea:	5a c1       	rjmp	.+692    	; 0x12a0 <__fp_inf>

00000fec <__addsf3x>:
     fec:	e9 2f       	mov	r30, r25
     fee:	a5 d1       	rcall	.+842    	; 0x133a <__fp_split3>
     ff0:	80 f3       	brcs	.-32     	; 0xfd2 <__addsf3+0x8>
     ff2:	ba 17       	cp	r27, r26
     ff4:	62 07       	cpc	r22, r18
     ff6:	73 07       	cpc	r23, r19
     ff8:	84 07       	cpc	r24, r20
     ffa:	95 07       	cpc	r25, r21
     ffc:	18 f0       	brcs	.+6      	; 0x1004 <__addsf3x+0x18>
     ffe:	71 f4       	brne	.+28     	; 0x101c <__addsf3x+0x30>
    1000:	9e f5       	brtc	.+102    	; 0x1068 <__addsf3x+0x7c>
    1002:	bd c1       	rjmp	.+890    	; 0x137e <__fp_zero>
    1004:	0e f4       	brtc	.+2      	; 0x1008 <__addsf3x+0x1c>
    1006:	e0 95       	com	r30
    1008:	0b 2e       	mov	r0, r27
    100a:	ba 2f       	mov	r27, r26
    100c:	a0 2d       	mov	r26, r0
    100e:	0b 01       	movw	r0, r22
    1010:	b9 01       	movw	r22, r18
    1012:	90 01       	movw	r18, r0
    1014:	0c 01       	movw	r0, r24
    1016:	ca 01       	movw	r24, r20
    1018:	a0 01       	movw	r20, r0
    101a:	11 24       	eor	r1, r1
    101c:	ff 27       	eor	r31, r31
    101e:	59 1b       	sub	r21, r25
    1020:	99 f0       	breq	.+38     	; 0x1048 <__addsf3x+0x5c>
    1022:	59 3f       	cpi	r21, 0xF9	; 249
    1024:	50 f4       	brcc	.+20     	; 0x103a <__addsf3x+0x4e>
    1026:	50 3e       	cpi	r21, 0xE0	; 224
    1028:	68 f1       	brcs	.+90     	; 0x1084 <__addsf3x+0x98>
    102a:	1a 16       	cp	r1, r26
    102c:	f0 40       	sbci	r31, 0x00	; 0
    102e:	a2 2f       	mov	r26, r18
    1030:	23 2f       	mov	r18, r19
    1032:	34 2f       	mov	r19, r20
    1034:	44 27       	eor	r20, r20
    1036:	58 5f       	subi	r21, 0xF8	; 248
    1038:	f3 cf       	rjmp	.-26     	; 0x1020 <__addsf3x+0x34>
    103a:	46 95       	lsr	r20
    103c:	37 95       	ror	r19
    103e:	27 95       	ror	r18
    1040:	a7 95       	ror	r26
    1042:	f0 40       	sbci	r31, 0x00	; 0
    1044:	53 95       	inc	r21
    1046:	c9 f7       	brne	.-14     	; 0x103a <__addsf3x+0x4e>
    1048:	7e f4       	brtc	.+30     	; 0x1068 <__addsf3x+0x7c>
    104a:	1f 16       	cp	r1, r31
    104c:	ba 0b       	sbc	r27, r26
    104e:	62 0b       	sbc	r22, r18
    1050:	73 0b       	sbc	r23, r19
    1052:	84 0b       	sbc	r24, r20
    1054:	ba f0       	brmi	.+46     	; 0x1084 <__addsf3x+0x98>
    1056:	91 50       	subi	r25, 0x01	; 1
    1058:	a1 f0       	breq	.+40     	; 0x1082 <__addsf3x+0x96>
    105a:	ff 0f       	add	r31, r31
    105c:	bb 1f       	adc	r27, r27
    105e:	66 1f       	adc	r22, r22
    1060:	77 1f       	adc	r23, r23
    1062:	88 1f       	adc	r24, r24
    1064:	c2 f7       	brpl	.-16     	; 0x1056 <__addsf3x+0x6a>
    1066:	0e c0       	rjmp	.+28     	; 0x1084 <__addsf3x+0x98>
    1068:	ba 0f       	add	r27, r26
    106a:	62 1f       	adc	r22, r18
    106c:	73 1f       	adc	r23, r19
    106e:	84 1f       	adc	r24, r20
    1070:	48 f4       	brcc	.+18     	; 0x1084 <__addsf3x+0x98>
    1072:	87 95       	ror	r24
    1074:	77 95       	ror	r23
    1076:	67 95       	ror	r22
    1078:	b7 95       	ror	r27
    107a:	f7 95       	ror	r31
    107c:	9e 3f       	cpi	r25, 0xFE	; 254
    107e:	08 f0       	brcs	.+2      	; 0x1082 <__addsf3x+0x96>
    1080:	b3 cf       	rjmp	.-154    	; 0xfe8 <__addsf3+0x1e>
    1082:	93 95       	inc	r25
    1084:	88 0f       	add	r24, r24
    1086:	08 f0       	brcs	.+2      	; 0x108a <__addsf3x+0x9e>
    1088:	99 27       	eor	r25, r25
    108a:	ee 0f       	add	r30, r30
    108c:	97 95       	ror	r25
    108e:	87 95       	ror	r24
    1090:	08 95       	ret

00001092 <__divsf3>:
    1092:	0c d0       	rcall	.+24     	; 0x10ac <__divsf3x>
    1094:	41 c1       	rjmp	.+642    	; 0x1318 <__fp_round>
    1096:	39 d1       	rcall	.+626    	; 0x130a <__fp_pscB>
    1098:	40 f0       	brcs	.+16     	; 0x10aa <__divsf3+0x18>
    109a:	30 d1       	rcall	.+608    	; 0x12fc <__fp_pscA>
    109c:	30 f0       	brcs	.+12     	; 0x10aa <__divsf3+0x18>
    109e:	21 f4       	brne	.+8      	; 0x10a8 <__divsf3+0x16>
    10a0:	5f 3f       	cpi	r21, 0xFF	; 255
    10a2:	19 f0       	breq	.+6      	; 0x10aa <__divsf3+0x18>
    10a4:	fd c0       	rjmp	.+506    	; 0x12a0 <__fp_inf>
    10a6:	51 11       	cpse	r21, r1
    10a8:	6b c1       	rjmp	.+726    	; 0x1380 <__fp_szero>
    10aa:	00 c1       	rjmp	.+512    	; 0x12ac <__fp_nan>

000010ac <__divsf3x>:
    10ac:	46 d1       	rcall	.+652    	; 0x133a <__fp_split3>
    10ae:	98 f3       	brcs	.-26     	; 0x1096 <__divsf3+0x4>

000010b0 <__divsf3_pse>:
    10b0:	99 23       	and	r25, r25
    10b2:	c9 f3       	breq	.-14     	; 0x10a6 <__divsf3+0x14>
    10b4:	55 23       	and	r21, r21
    10b6:	b1 f3       	breq	.-20     	; 0x10a4 <__divsf3+0x12>
    10b8:	95 1b       	sub	r25, r21
    10ba:	55 0b       	sbc	r21, r21
    10bc:	bb 27       	eor	r27, r27
    10be:	aa 27       	eor	r26, r26
    10c0:	62 17       	cp	r22, r18
    10c2:	73 07       	cpc	r23, r19
    10c4:	84 07       	cpc	r24, r20
    10c6:	38 f0       	brcs	.+14     	; 0x10d6 <__divsf3_pse+0x26>
    10c8:	9f 5f       	subi	r25, 0xFF	; 255
    10ca:	5f 4f       	sbci	r21, 0xFF	; 255
    10cc:	22 0f       	add	r18, r18
    10ce:	33 1f       	adc	r19, r19
    10d0:	44 1f       	adc	r20, r20
    10d2:	aa 1f       	adc	r26, r26
    10d4:	a9 f3       	breq	.-22     	; 0x10c0 <__divsf3_pse+0x10>
    10d6:	33 d0       	rcall	.+102    	; 0x113e <__divsf3_pse+0x8e>
    10d8:	0e 2e       	mov	r0, r30
    10da:	3a f0       	brmi	.+14     	; 0x10ea <__divsf3_pse+0x3a>
    10dc:	e0 e8       	ldi	r30, 0x80	; 128
    10de:	30 d0       	rcall	.+96     	; 0x1140 <__divsf3_pse+0x90>
    10e0:	91 50       	subi	r25, 0x01	; 1
    10e2:	50 40       	sbci	r21, 0x00	; 0
    10e4:	e6 95       	lsr	r30
    10e6:	00 1c       	adc	r0, r0
    10e8:	ca f7       	brpl	.-14     	; 0x10dc <__divsf3_pse+0x2c>
    10ea:	29 d0       	rcall	.+82     	; 0x113e <__divsf3_pse+0x8e>
    10ec:	fe 2f       	mov	r31, r30
    10ee:	27 d0       	rcall	.+78     	; 0x113e <__divsf3_pse+0x8e>
    10f0:	66 0f       	add	r22, r22
    10f2:	77 1f       	adc	r23, r23
    10f4:	88 1f       	adc	r24, r24
    10f6:	bb 1f       	adc	r27, r27
    10f8:	26 17       	cp	r18, r22
    10fa:	37 07       	cpc	r19, r23
    10fc:	48 07       	cpc	r20, r24
    10fe:	ab 07       	cpc	r26, r27
    1100:	b0 e8       	ldi	r27, 0x80	; 128
    1102:	09 f0       	breq	.+2      	; 0x1106 <__divsf3_pse+0x56>
    1104:	bb 0b       	sbc	r27, r27
    1106:	80 2d       	mov	r24, r0
    1108:	bf 01       	movw	r22, r30
    110a:	ff 27       	eor	r31, r31
    110c:	93 58       	subi	r25, 0x83	; 131
    110e:	5f 4f       	sbci	r21, 0xFF	; 255
    1110:	2a f0       	brmi	.+10     	; 0x111c <__divsf3_pse+0x6c>
    1112:	9e 3f       	cpi	r25, 0xFE	; 254
    1114:	51 05       	cpc	r21, r1
    1116:	68 f0       	brcs	.+26     	; 0x1132 <__divsf3_pse+0x82>
    1118:	c3 c0       	rjmp	.+390    	; 0x12a0 <__fp_inf>
    111a:	32 c1       	rjmp	.+612    	; 0x1380 <__fp_szero>
    111c:	5f 3f       	cpi	r21, 0xFF	; 255
    111e:	ec f3       	brlt	.-6      	; 0x111a <__divsf3_pse+0x6a>
    1120:	98 3e       	cpi	r25, 0xE8	; 232
    1122:	dc f3       	brlt	.-10     	; 0x111a <__divsf3_pse+0x6a>
    1124:	86 95       	lsr	r24
    1126:	77 95       	ror	r23
    1128:	67 95       	ror	r22
    112a:	b7 95       	ror	r27
    112c:	f7 95       	ror	r31
    112e:	9f 5f       	subi	r25, 0xFF	; 255
    1130:	c9 f7       	brne	.-14     	; 0x1124 <__divsf3_pse+0x74>
    1132:	88 0f       	add	r24, r24
    1134:	91 1d       	adc	r25, r1
    1136:	96 95       	lsr	r25
    1138:	87 95       	ror	r24
    113a:	97 f9       	bld	r25, 7
    113c:	08 95       	ret
    113e:	e1 e0       	ldi	r30, 0x01	; 1
    1140:	66 0f       	add	r22, r22
    1142:	77 1f       	adc	r23, r23
    1144:	88 1f       	adc	r24, r24
    1146:	bb 1f       	adc	r27, r27
    1148:	62 17       	cp	r22, r18
    114a:	73 07       	cpc	r23, r19
    114c:	84 07       	cpc	r24, r20
    114e:	ba 07       	cpc	r27, r26
    1150:	20 f0       	brcs	.+8      	; 0x115a <__divsf3_pse+0xaa>
    1152:	62 1b       	sub	r22, r18
    1154:	73 0b       	sbc	r23, r19
    1156:	84 0b       	sbc	r24, r20
    1158:	ba 0b       	sbc	r27, r26
    115a:	ee 1f       	adc	r30, r30
    115c:	88 f7       	brcc	.-30     	; 0x1140 <__divsf3_pse+0x90>
    115e:	e0 95       	com	r30
    1160:	08 95       	ret
    1162:	19 f4       	brne	.+6      	; 0x116a <__divsf3_pse+0xba>
    1164:	0e f0       	brts	.+2      	; 0x1168 <__divsf3_pse+0xb8>
    1166:	9c c0       	rjmp	.+312    	; 0x12a0 <__fp_inf>
    1168:	0a c1       	rjmp	.+532    	; 0x137e <__fp_zero>
    116a:	a0 c0       	rjmp	.+320    	; 0x12ac <__fp_nan>

0000116c <exp>:
    116c:	ee d0       	rcall	.+476    	; 0x134a <__fp_splitA>
    116e:	c8 f3       	brcs	.-14     	; 0x1162 <__divsf3_pse+0xb2>
    1170:	96 38       	cpi	r25, 0x86	; 134
    1172:	c0 f7       	brcc	.-16     	; 0x1164 <__divsf3_pse+0xb4>
    1174:	07 f8       	bld	r0, 7
    1176:	0f 92       	push	r0
    1178:	e8 94       	clt
    117a:	2b e3       	ldi	r18, 0x3B	; 59
    117c:	3a ea       	ldi	r19, 0xAA	; 170
    117e:	48 eb       	ldi	r20, 0xB8	; 184
    1180:	5f e7       	ldi	r21, 0x7F	; 127
    1182:	c7 d1       	rcall	.+910    	; 0x1512 <__mulsf3_pse>
    1184:	0f 92       	push	r0
    1186:	0f 92       	push	r0
    1188:	0f 92       	push	r0
    118a:	4d b7       	in	r20, 0x3d	; 61
    118c:	5e b7       	in	r21, 0x3e	; 62
    118e:	0f 92       	push	r0
    1190:	7f d1       	rcall	.+766    	; 0x1490 <modf>
    1192:	e2 ef       	ldi	r30, 0xF2	; 242
    1194:	f0 e0       	ldi	r31, 0x00	; 0
    1196:	8d d0       	rcall	.+282    	; 0x12b2 <__fp_powser>
    1198:	4f 91       	pop	r20
    119a:	5f 91       	pop	r21
    119c:	ef 91       	pop	r30
    119e:	ff 91       	pop	r31
    11a0:	e5 95       	asr	r30
    11a2:	ee 1f       	adc	r30, r30
    11a4:	ff 1f       	adc	r31, r31
    11a6:	49 f0       	breq	.+18     	; 0x11ba <exp+0x4e>
    11a8:	fe 57       	subi	r31, 0x7E	; 126
    11aa:	e0 68       	ori	r30, 0x80	; 128
    11ac:	44 27       	eor	r20, r20
    11ae:	ee 0f       	add	r30, r30
    11b0:	44 1f       	adc	r20, r20
    11b2:	fa 95       	dec	r31
    11b4:	e1 f7       	brne	.-8      	; 0x11ae <exp+0x42>
    11b6:	41 95       	neg	r20
    11b8:	55 0b       	sbc	r21, r21
    11ba:	f1 d0       	rcall	.+482    	; 0x139e <ldexp>
    11bc:	0f 90       	pop	r0
    11be:	07 fe       	sbrs	r0, 7
    11c0:	e5 c0       	rjmp	.+458    	; 0x138c <inverse>
    11c2:	08 95       	ret

000011c4 <__fixsfsi>:
    11c4:	04 d0       	rcall	.+8      	; 0x11ce <__fixunssfsi>
    11c6:	68 94       	set
    11c8:	b1 11       	cpse	r27, r1
    11ca:	da c0       	rjmp	.+436    	; 0x1380 <__fp_szero>
    11cc:	08 95       	ret

000011ce <__fixunssfsi>:
    11ce:	bd d0       	rcall	.+378    	; 0x134a <__fp_splitA>
    11d0:	88 f0       	brcs	.+34     	; 0x11f4 <__fixunssfsi+0x26>
    11d2:	9f 57       	subi	r25, 0x7F	; 127
    11d4:	90 f0       	brcs	.+36     	; 0x11fa <__fixunssfsi+0x2c>
    11d6:	b9 2f       	mov	r27, r25
    11d8:	99 27       	eor	r25, r25
    11da:	b7 51       	subi	r27, 0x17	; 23
    11dc:	a0 f0       	brcs	.+40     	; 0x1206 <__fixunssfsi+0x38>
    11de:	d1 f0       	breq	.+52     	; 0x1214 <__fixunssfsi+0x46>
    11e0:	66 0f       	add	r22, r22
    11e2:	77 1f       	adc	r23, r23
    11e4:	88 1f       	adc	r24, r24
    11e6:	99 1f       	adc	r25, r25
    11e8:	1a f0       	brmi	.+6      	; 0x11f0 <__fixunssfsi+0x22>
    11ea:	ba 95       	dec	r27
    11ec:	c9 f7       	brne	.-14     	; 0x11e0 <__fixunssfsi+0x12>
    11ee:	12 c0       	rjmp	.+36     	; 0x1214 <__fixunssfsi+0x46>
    11f0:	b1 30       	cpi	r27, 0x01	; 1
    11f2:	81 f0       	breq	.+32     	; 0x1214 <__fixunssfsi+0x46>
    11f4:	c4 d0       	rcall	.+392    	; 0x137e <__fp_zero>
    11f6:	b1 e0       	ldi	r27, 0x01	; 1
    11f8:	08 95       	ret
    11fa:	c1 c0       	rjmp	.+386    	; 0x137e <__fp_zero>
    11fc:	67 2f       	mov	r22, r23
    11fe:	78 2f       	mov	r23, r24
    1200:	88 27       	eor	r24, r24
    1202:	b8 5f       	subi	r27, 0xF8	; 248
    1204:	39 f0       	breq	.+14     	; 0x1214 <__fixunssfsi+0x46>
    1206:	b9 3f       	cpi	r27, 0xF9	; 249
    1208:	cc f3       	brlt	.-14     	; 0x11fc <__fixunssfsi+0x2e>
    120a:	86 95       	lsr	r24
    120c:	77 95       	ror	r23
    120e:	67 95       	ror	r22
    1210:	b3 95       	inc	r27
    1212:	d9 f7       	brne	.-10     	; 0x120a <__fixunssfsi+0x3c>
    1214:	3e f4       	brtc	.+14     	; 0x1224 <__fixunssfsi+0x56>
    1216:	90 95       	com	r25
    1218:	80 95       	com	r24
    121a:	70 95       	com	r23
    121c:	61 95       	neg	r22
    121e:	7f 4f       	sbci	r23, 0xFF	; 255
    1220:	8f 4f       	sbci	r24, 0xFF	; 255
    1222:	9f 4f       	sbci	r25, 0xFF	; 255
    1224:	08 95       	ret

00001226 <__floatunsisf>:
    1226:	e8 94       	clt
    1228:	09 c0       	rjmp	.+18     	; 0x123c <__floatsisf+0x12>

0000122a <__floatsisf>:
    122a:	97 fb       	bst	r25, 7
    122c:	3e f4       	brtc	.+14     	; 0x123c <__floatsisf+0x12>
    122e:	90 95       	com	r25
    1230:	80 95       	com	r24
    1232:	70 95       	com	r23
    1234:	61 95       	neg	r22
    1236:	7f 4f       	sbci	r23, 0xFF	; 255
    1238:	8f 4f       	sbci	r24, 0xFF	; 255
    123a:	9f 4f       	sbci	r25, 0xFF	; 255
    123c:	99 23       	and	r25, r25
    123e:	a9 f0       	breq	.+42     	; 0x126a <__floatsisf+0x40>
    1240:	f9 2f       	mov	r31, r25
    1242:	96 e9       	ldi	r25, 0x96	; 150
    1244:	bb 27       	eor	r27, r27
    1246:	93 95       	inc	r25
    1248:	f6 95       	lsr	r31
    124a:	87 95       	ror	r24
    124c:	77 95       	ror	r23
    124e:	67 95       	ror	r22
    1250:	b7 95       	ror	r27
    1252:	f1 11       	cpse	r31, r1
    1254:	f8 cf       	rjmp	.-16     	; 0x1246 <__floatsisf+0x1c>
    1256:	fa f4       	brpl	.+62     	; 0x1296 <__floatsisf+0x6c>
    1258:	bb 0f       	add	r27, r27
    125a:	11 f4       	brne	.+4      	; 0x1260 <__floatsisf+0x36>
    125c:	60 ff       	sbrs	r22, 0
    125e:	1b c0       	rjmp	.+54     	; 0x1296 <__floatsisf+0x6c>
    1260:	6f 5f       	subi	r22, 0xFF	; 255
    1262:	7f 4f       	sbci	r23, 0xFF	; 255
    1264:	8f 4f       	sbci	r24, 0xFF	; 255
    1266:	9f 4f       	sbci	r25, 0xFF	; 255
    1268:	16 c0       	rjmp	.+44     	; 0x1296 <__floatsisf+0x6c>
    126a:	88 23       	and	r24, r24
    126c:	11 f0       	breq	.+4      	; 0x1272 <__floatsisf+0x48>
    126e:	96 e9       	ldi	r25, 0x96	; 150
    1270:	11 c0       	rjmp	.+34     	; 0x1294 <__floatsisf+0x6a>
    1272:	77 23       	and	r23, r23
    1274:	21 f0       	breq	.+8      	; 0x127e <__floatsisf+0x54>
    1276:	9e e8       	ldi	r25, 0x8E	; 142
    1278:	87 2f       	mov	r24, r23
    127a:	76 2f       	mov	r23, r22
    127c:	05 c0       	rjmp	.+10     	; 0x1288 <__floatsisf+0x5e>
    127e:	66 23       	and	r22, r22
    1280:	71 f0       	breq	.+28     	; 0x129e <__floatsisf+0x74>
    1282:	96 e8       	ldi	r25, 0x86	; 134
    1284:	86 2f       	mov	r24, r22
    1286:	70 e0       	ldi	r23, 0x00	; 0
    1288:	60 e0       	ldi	r22, 0x00	; 0
    128a:	2a f0       	brmi	.+10     	; 0x1296 <__floatsisf+0x6c>
    128c:	9a 95       	dec	r25
    128e:	66 0f       	add	r22, r22
    1290:	77 1f       	adc	r23, r23
    1292:	88 1f       	adc	r24, r24
    1294:	da f7       	brpl	.-10     	; 0x128c <__floatsisf+0x62>
    1296:	88 0f       	add	r24, r24
    1298:	96 95       	lsr	r25
    129a:	87 95       	ror	r24
    129c:	97 f9       	bld	r25, 7
    129e:	08 95       	ret

000012a0 <__fp_inf>:
    12a0:	97 f9       	bld	r25, 7
    12a2:	9f 67       	ori	r25, 0x7F	; 127
    12a4:	80 e8       	ldi	r24, 0x80	; 128
    12a6:	70 e0       	ldi	r23, 0x00	; 0
    12a8:	60 e0       	ldi	r22, 0x00	; 0
    12aa:	08 95       	ret

000012ac <__fp_nan>:
    12ac:	9f ef       	ldi	r25, 0xFF	; 255
    12ae:	80 ec       	ldi	r24, 0xC0	; 192
    12b0:	08 95       	ret

000012b2 <__fp_powser>:
    12b2:	df 93       	push	r29
    12b4:	cf 93       	push	r28
    12b6:	1f 93       	push	r17
    12b8:	0f 93       	push	r16
    12ba:	ff 92       	push	r15
    12bc:	ef 92       	push	r14
    12be:	df 92       	push	r13
    12c0:	7b 01       	movw	r14, r22
    12c2:	8c 01       	movw	r16, r24
    12c4:	68 94       	set
    12c6:	05 c0       	rjmp	.+10     	; 0x12d2 <__fp_powser+0x20>
    12c8:	da 2e       	mov	r13, r26
    12ca:	ef 01       	movw	r28, r30
    12cc:	20 d1       	rcall	.+576    	; 0x150e <__mulsf3x>
    12ce:	fe 01       	movw	r30, r28
    12d0:	e8 94       	clt
    12d2:	a5 91       	lpm	r26, Z+
    12d4:	25 91       	lpm	r18, Z+
    12d6:	35 91       	lpm	r19, Z+
    12d8:	45 91       	lpm	r20, Z+
    12da:	55 91       	lpm	r21, Z+
    12dc:	ae f3       	brts	.-22     	; 0x12c8 <__fp_powser+0x16>
    12de:	ef 01       	movw	r28, r30
    12e0:	85 de       	rcall	.-758    	; 0xfec <__addsf3x>
    12e2:	fe 01       	movw	r30, r28
    12e4:	97 01       	movw	r18, r14
    12e6:	a8 01       	movw	r20, r16
    12e8:	da 94       	dec	r13
    12ea:	79 f7       	brne	.-34     	; 0x12ca <__fp_powser+0x18>
    12ec:	df 90       	pop	r13
    12ee:	ef 90       	pop	r14
    12f0:	ff 90       	pop	r15
    12f2:	0f 91       	pop	r16
    12f4:	1f 91       	pop	r17
    12f6:	cf 91       	pop	r28
    12f8:	df 91       	pop	r29
    12fa:	08 95       	ret

000012fc <__fp_pscA>:
    12fc:	00 24       	eor	r0, r0
    12fe:	0a 94       	dec	r0
    1300:	16 16       	cp	r1, r22
    1302:	17 06       	cpc	r1, r23
    1304:	18 06       	cpc	r1, r24
    1306:	09 06       	cpc	r0, r25
    1308:	08 95       	ret

0000130a <__fp_pscB>:
    130a:	00 24       	eor	r0, r0
    130c:	0a 94       	dec	r0
    130e:	12 16       	cp	r1, r18
    1310:	13 06       	cpc	r1, r19
    1312:	14 06       	cpc	r1, r20
    1314:	05 06       	cpc	r0, r21
    1316:	08 95       	ret

00001318 <__fp_round>:
    1318:	09 2e       	mov	r0, r25
    131a:	03 94       	inc	r0
    131c:	00 0c       	add	r0, r0
    131e:	11 f4       	brne	.+4      	; 0x1324 <__fp_round+0xc>
    1320:	88 23       	and	r24, r24
    1322:	52 f0       	brmi	.+20     	; 0x1338 <__fp_round+0x20>
    1324:	bb 0f       	add	r27, r27
    1326:	40 f4       	brcc	.+16     	; 0x1338 <__fp_round+0x20>
    1328:	bf 2b       	or	r27, r31
    132a:	11 f4       	brne	.+4      	; 0x1330 <__fp_round+0x18>
    132c:	60 ff       	sbrs	r22, 0
    132e:	04 c0       	rjmp	.+8      	; 0x1338 <__fp_round+0x20>
    1330:	6f 5f       	subi	r22, 0xFF	; 255
    1332:	7f 4f       	sbci	r23, 0xFF	; 255
    1334:	8f 4f       	sbci	r24, 0xFF	; 255
    1336:	9f 4f       	sbci	r25, 0xFF	; 255
    1338:	08 95       	ret

0000133a <__fp_split3>:
    133a:	57 fd       	sbrc	r21, 7
    133c:	90 58       	subi	r25, 0x80	; 128
    133e:	44 0f       	add	r20, r20
    1340:	55 1f       	adc	r21, r21
    1342:	59 f0       	breq	.+22     	; 0x135a <__fp_splitA+0x10>
    1344:	5f 3f       	cpi	r21, 0xFF	; 255
    1346:	71 f0       	breq	.+28     	; 0x1364 <__fp_splitA+0x1a>
    1348:	47 95       	ror	r20

0000134a <__fp_splitA>:
    134a:	88 0f       	add	r24, r24
    134c:	97 fb       	bst	r25, 7
    134e:	99 1f       	adc	r25, r25
    1350:	61 f0       	breq	.+24     	; 0x136a <__fp_splitA+0x20>
    1352:	9f 3f       	cpi	r25, 0xFF	; 255
    1354:	79 f0       	breq	.+30     	; 0x1374 <__fp_splitA+0x2a>
    1356:	87 95       	ror	r24
    1358:	08 95       	ret
    135a:	12 16       	cp	r1, r18
    135c:	13 06       	cpc	r1, r19
    135e:	14 06       	cpc	r1, r20
    1360:	55 1f       	adc	r21, r21
    1362:	f2 cf       	rjmp	.-28     	; 0x1348 <__fp_split3+0xe>
    1364:	46 95       	lsr	r20
    1366:	f1 df       	rcall	.-30     	; 0x134a <__fp_splitA>
    1368:	08 c0       	rjmp	.+16     	; 0x137a <__fp_splitA+0x30>
    136a:	16 16       	cp	r1, r22
    136c:	17 06       	cpc	r1, r23
    136e:	18 06       	cpc	r1, r24
    1370:	99 1f       	adc	r25, r25
    1372:	f1 cf       	rjmp	.-30     	; 0x1356 <__fp_splitA+0xc>
    1374:	86 95       	lsr	r24
    1376:	71 05       	cpc	r23, r1
    1378:	61 05       	cpc	r22, r1
    137a:	08 94       	sec
    137c:	08 95       	ret

0000137e <__fp_zero>:
    137e:	e8 94       	clt

00001380 <__fp_szero>:
    1380:	bb 27       	eor	r27, r27
    1382:	66 27       	eor	r22, r22
    1384:	77 27       	eor	r23, r23
    1386:	cb 01       	movw	r24, r22
    1388:	97 f9       	bld	r25, 7
    138a:	08 95       	ret

0000138c <inverse>:
    138c:	9b 01       	movw	r18, r22
    138e:	ac 01       	movw	r20, r24
    1390:	60 e0       	ldi	r22, 0x00	; 0
    1392:	70 e0       	ldi	r23, 0x00	; 0
    1394:	80 e8       	ldi	r24, 0x80	; 128
    1396:	9f e3       	ldi	r25, 0x3F	; 63
    1398:	7c ce       	rjmp	.-776    	; 0x1092 <__divsf3>
    139a:	82 cf       	rjmp	.-252    	; 0x12a0 <__fp_inf>
    139c:	5b c1       	rjmp	.+694    	; 0x1654 <__fp_mpack>

0000139e <ldexp>:
    139e:	d5 df       	rcall	.-86     	; 0x134a <__fp_splitA>
    13a0:	e8 f3       	brcs	.-6      	; 0x139c <inverse+0x10>
    13a2:	99 23       	and	r25, r25
    13a4:	d9 f3       	breq	.-10     	; 0x139c <inverse+0x10>
    13a6:	94 0f       	add	r25, r20
    13a8:	51 1d       	adc	r21, r1
    13aa:	bb f3       	brvs	.-18     	; 0x139a <inverse+0xe>
    13ac:	91 50       	subi	r25, 0x01	; 1
    13ae:	50 40       	sbci	r21, 0x00	; 0
    13b0:	94 f0       	brlt	.+36     	; 0x13d6 <ldexp+0x38>
    13b2:	59 f0       	breq	.+22     	; 0x13ca <ldexp+0x2c>
    13b4:	88 23       	and	r24, r24
    13b6:	32 f0       	brmi	.+12     	; 0x13c4 <ldexp+0x26>
    13b8:	66 0f       	add	r22, r22
    13ba:	77 1f       	adc	r23, r23
    13bc:	88 1f       	adc	r24, r24
    13be:	91 50       	subi	r25, 0x01	; 1
    13c0:	50 40       	sbci	r21, 0x00	; 0
    13c2:	c1 f7       	brne	.-16     	; 0x13b4 <ldexp+0x16>
    13c4:	9e 3f       	cpi	r25, 0xFE	; 254
    13c6:	51 05       	cpc	r21, r1
    13c8:	44 f7       	brge	.-48     	; 0x139a <inverse+0xe>
    13ca:	88 0f       	add	r24, r24
    13cc:	91 1d       	adc	r25, r1
    13ce:	96 95       	lsr	r25
    13d0:	87 95       	ror	r24
    13d2:	97 f9       	bld	r25, 7
    13d4:	08 95       	ret
    13d6:	5f 3f       	cpi	r21, 0xFF	; 255
    13d8:	ac f0       	brlt	.+42     	; 0x1404 <ldexp+0x66>
    13da:	98 3e       	cpi	r25, 0xE8	; 232
    13dc:	9c f0       	brlt	.+38     	; 0x1404 <ldexp+0x66>
    13de:	bb 27       	eor	r27, r27
    13e0:	86 95       	lsr	r24
    13e2:	77 95       	ror	r23
    13e4:	67 95       	ror	r22
    13e6:	b7 95       	ror	r27
    13e8:	08 f4       	brcc	.+2      	; 0x13ec <ldexp+0x4e>
    13ea:	b1 60       	ori	r27, 0x01	; 1
    13ec:	93 95       	inc	r25
    13ee:	c1 f7       	brne	.-16     	; 0x13e0 <ldexp+0x42>
    13f0:	bb 0f       	add	r27, r27
    13f2:	58 f7       	brcc	.-42     	; 0x13ca <ldexp+0x2c>
    13f4:	11 f4       	brne	.+4      	; 0x13fa <ldexp+0x5c>
    13f6:	60 ff       	sbrs	r22, 0
    13f8:	e8 cf       	rjmp	.-48     	; 0x13ca <ldexp+0x2c>
    13fa:	6f 5f       	subi	r22, 0xFF	; 255
    13fc:	7f 4f       	sbci	r23, 0xFF	; 255
    13fe:	8f 4f       	sbci	r24, 0xFF	; 255
    1400:	9f 4f       	sbci	r25, 0xFF	; 255
    1402:	e3 cf       	rjmp	.-58     	; 0x13ca <ldexp+0x2c>
    1404:	bd cf       	rjmp	.-134    	; 0x1380 <__fp_szero>
    1406:	0e f0       	brts	.+2      	; 0x140a <ldexp+0x6c>
    1408:	25 c1       	rjmp	.+586    	; 0x1654 <__fp_mpack>
    140a:	50 cf       	rjmp	.-352    	; 0x12ac <__fp_nan>
    140c:	68 94       	set
    140e:	48 cf       	rjmp	.-368    	; 0x12a0 <__fp_inf>

00001410 <log>:
    1410:	9c df       	rcall	.-200    	; 0x134a <__fp_splitA>
    1412:	c8 f3       	brcs	.-14     	; 0x1406 <ldexp+0x68>
    1414:	99 23       	and	r25, r25
    1416:	d1 f3       	breq	.-12     	; 0x140c <ldexp+0x6e>
    1418:	c6 f3       	brts	.-16     	; 0x140a <ldexp+0x6c>
    141a:	df 93       	push	r29
    141c:	cf 93       	push	r28
    141e:	1f 93       	push	r17
    1420:	0f 93       	push	r16
    1422:	ff 92       	push	r15
    1424:	c9 2f       	mov	r28, r25
    1426:	dd 27       	eor	r29, r29
    1428:	88 23       	and	r24, r24
    142a:	2a f0       	brmi	.+10     	; 0x1436 <log+0x26>
    142c:	21 97       	sbiw	r28, 0x01	; 1
    142e:	66 0f       	add	r22, r22
    1430:	77 1f       	adc	r23, r23
    1432:	88 1f       	adc	r24, r24
    1434:	da f7       	brpl	.-10     	; 0x142c <log+0x1c>
    1436:	20 e0       	ldi	r18, 0x00	; 0
    1438:	30 e0       	ldi	r19, 0x00	; 0
    143a:	40 e8       	ldi	r20, 0x80	; 128
    143c:	5f eb       	ldi	r21, 0xBF	; 191
    143e:	9f e3       	ldi	r25, 0x3F	; 63
    1440:	88 39       	cpi	r24, 0x98	; 152
    1442:	20 f0       	brcs	.+8      	; 0x144c <log+0x3c>
    1444:	80 3e       	cpi	r24, 0xE0	; 224
    1446:	30 f0       	brcs	.+12     	; 0x1454 <log+0x44>
    1448:	21 96       	adiw	r28, 0x01	; 1
    144a:	8f 77       	andi	r24, 0x7F	; 127
    144c:	be dd       	rcall	.-1156   	; 0xfca <__addsf3>
    144e:	ea e1       	ldi	r30, 0x1A	; 26
    1450:	f1 e0       	ldi	r31, 0x01	; 1
    1452:	03 c0       	rjmp	.+6      	; 0x145a <log+0x4a>
    1454:	ba dd       	rcall	.-1164   	; 0xfca <__addsf3>
    1456:	e7 e4       	ldi	r30, 0x47	; 71
    1458:	f1 e0       	ldi	r31, 0x01	; 1
    145a:	2b df       	rcall	.-426    	; 0x12b2 <__fp_powser>
    145c:	8b 01       	movw	r16, r22
    145e:	be 01       	movw	r22, r28
    1460:	ec 01       	movw	r28, r24
    1462:	fb 2e       	mov	r15, r27
    1464:	6f 57       	subi	r22, 0x7F	; 127
    1466:	71 09       	sbc	r23, r1
    1468:	75 95       	asr	r23
    146a:	77 1f       	adc	r23, r23
    146c:	88 0b       	sbc	r24, r24
    146e:	99 0b       	sbc	r25, r25
    1470:	dc de       	rcall	.-584    	; 0x122a <__floatsisf>
    1472:	28 e1       	ldi	r18, 0x18	; 24
    1474:	32 e7       	ldi	r19, 0x72	; 114
    1476:	41 e3       	ldi	r20, 0x31	; 49
    1478:	5f e3       	ldi	r21, 0x3F	; 63
    147a:	49 d0       	rcall	.+146    	; 0x150e <__mulsf3x>
    147c:	af 2d       	mov	r26, r15
    147e:	98 01       	movw	r18, r16
    1480:	ae 01       	movw	r20, r28
    1482:	ff 90       	pop	r15
    1484:	0f 91       	pop	r16
    1486:	1f 91       	pop	r17
    1488:	cf 91       	pop	r28
    148a:	df 91       	pop	r29
    148c:	af dd       	rcall	.-1186   	; 0xfec <__addsf3x>
    148e:	44 cf       	rjmp	.-376    	; 0x1318 <__fp_round>

00001490 <modf>:
    1490:	fa 01       	movw	r30, r20
    1492:	dc 01       	movw	r26, r24
    1494:	aa 0f       	add	r26, r26
    1496:	bb 1f       	adc	r27, r27
    1498:	9b 01       	movw	r18, r22
    149a:	ac 01       	movw	r20, r24
    149c:	bf 57       	subi	r27, 0x7F	; 127
    149e:	28 f4       	brcc	.+10     	; 0x14aa <modf+0x1a>
    14a0:	22 27       	eor	r18, r18
    14a2:	33 27       	eor	r19, r19
    14a4:	44 27       	eor	r20, r20
    14a6:	50 78       	andi	r21, 0x80	; 128
    14a8:	1f c0       	rjmp	.+62     	; 0x14e8 <modf+0x58>
    14aa:	b7 51       	subi	r27, 0x17	; 23
    14ac:	88 f4       	brcc	.+34     	; 0x14d0 <modf+0x40>
    14ae:	ab 2f       	mov	r26, r27
    14b0:	00 24       	eor	r0, r0
    14b2:	46 95       	lsr	r20
    14b4:	37 95       	ror	r19
    14b6:	27 95       	ror	r18
    14b8:	01 1c       	adc	r0, r1
    14ba:	a3 95       	inc	r26
    14bc:	d2 f3       	brmi	.-12     	; 0x14b2 <modf+0x22>
    14be:	00 20       	and	r0, r0
    14c0:	69 f0       	breq	.+26     	; 0x14dc <modf+0x4c>
    14c2:	22 0f       	add	r18, r18
    14c4:	33 1f       	adc	r19, r19
    14c6:	44 1f       	adc	r20, r20
    14c8:	b3 95       	inc	r27
    14ca:	da f3       	brmi	.-10     	; 0x14c2 <modf+0x32>
    14cc:	0d d0       	rcall	.+26     	; 0x14e8 <modf+0x58>
    14ce:	7c cd       	rjmp	.-1288   	; 0xfc8 <__subsf3>
    14d0:	61 30       	cpi	r22, 0x01	; 1
    14d2:	71 05       	cpc	r23, r1
    14d4:	a0 e8       	ldi	r26, 0x80	; 128
    14d6:	8a 07       	cpc	r24, r26
    14d8:	b9 46       	sbci	r27, 0x69	; 105
    14da:	30 f4       	brcc	.+12     	; 0x14e8 <modf+0x58>
    14dc:	9b 01       	movw	r18, r22
    14de:	ac 01       	movw	r20, r24
    14e0:	66 27       	eor	r22, r22
    14e2:	77 27       	eor	r23, r23
    14e4:	88 27       	eor	r24, r24
    14e6:	90 78       	andi	r25, 0x80	; 128
    14e8:	30 96       	adiw	r30, 0x00	; 0
    14ea:	21 f0       	breq	.+8      	; 0x14f4 <modf+0x64>
    14ec:	20 83       	st	Z, r18
    14ee:	31 83       	std	Z+1, r19	; 0x01
    14f0:	42 83       	std	Z+2, r20	; 0x02
    14f2:	53 83       	std	Z+3, r21	; 0x03
    14f4:	08 95       	ret

000014f6 <__mulsf3>:
    14f6:	0b d0       	rcall	.+22     	; 0x150e <__mulsf3x>
    14f8:	0f cf       	rjmp	.-482    	; 0x1318 <__fp_round>
    14fa:	00 df       	rcall	.-512    	; 0x12fc <__fp_pscA>
    14fc:	28 f0       	brcs	.+10     	; 0x1508 <__mulsf3+0x12>
    14fe:	05 df       	rcall	.-502    	; 0x130a <__fp_pscB>
    1500:	18 f0       	brcs	.+6      	; 0x1508 <__mulsf3+0x12>
    1502:	95 23       	and	r25, r21
    1504:	09 f0       	breq	.+2      	; 0x1508 <__mulsf3+0x12>
    1506:	cc ce       	rjmp	.-616    	; 0x12a0 <__fp_inf>
    1508:	d1 ce       	rjmp	.-606    	; 0x12ac <__fp_nan>
    150a:	11 24       	eor	r1, r1
    150c:	39 cf       	rjmp	.-398    	; 0x1380 <__fp_szero>

0000150e <__mulsf3x>:
    150e:	15 df       	rcall	.-470    	; 0x133a <__fp_split3>
    1510:	a0 f3       	brcs	.-24     	; 0x14fa <__mulsf3+0x4>

00001512 <__mulsf3_pse>:
    1512:	95 9f       	mul	r25, r21
    1514:	d1 f3       	breq	.-12     	; 0x150a <__mulsf3+0x14>
    1516:	95 0f       	add	r25, r21
    1518:	50 e0       	ldi	r21, 0x00	; 0
    151a:	55 1f       	adc	r21, r21
    151c:	62 9f       	mul	r22, r18
    151e:	f0 01       	movw	r30, r0
    1520:	72 9f       	mul	r23, r18
    1522:	bb 27       	eor	r27, r27
    1524:	f0 0d       	add	r31, r0
    1526:	b1 1d       	adc	r27, r1
    1528:	63 9f       	mul	r22, r19
    152a:	aa 27       	eor	r26, r26
    152c:	f0 0d       	add	r31, r0
    152e:	b1 1d       	adc	r27, r1
    1530:	aa 1f       	adc	r26, r26
    1532:	64 9f       	mul	r22, r20
    1534:	66 27       	eor	r22, r22
    1536:	b0 0d       	add	r27, r0
    1538:	a1 1d       	adc	r26, r1
    153a:	66 1f       	adc	r22, r22
    153c:	82 9f       	mul	r24, r18
    153e:	22 27       	eor	r18, r18
    1540:	b0 0d       	add	r27, r0
    1542:	a1 1d       	adc	r26, r1
    1544:	62 1f       	adc	r22, r18
    1546:	73 9f       	mul	r23, r19
    1548:	b0 0d       	add	r27, r0
    154a:	a1 1d       	adc	r26, r1
    154c:	62 1f       	adc	r22, r18
    154e:	83 9f       	mul	r24, r19
    1550:	a0 0d       	add	r26, r0
    1552:	61 1d       	adc	r22, r1
    1554:	22 1f       	adc	r18, r18
    1556:	74 9f       	mul	r23, r20
    1558:	33 27       	eor	r19, r19
    155a:	a0 0d       	add	r26, r0
    155c:	61 1d       	adc	r22, r1
    155e:	23 1f       	adc	r18, r19
    1560:	84 9f       	mul	r24, r20
    1562:	60 0d       	add	r22, r0
    1564:	21 1d       	adc	r18, r1
    1566:	82 2f       	mov	r24, r18
    1568:	76 2f       	mov	r23, r22
    156a:	6a 2f       	mov	r22, r26
    156c:	11 24       	eor	r1, r1
    156e:	9f 57       	subi	r25, 0x7F	; 127
    1570:	50 40       	sbci	r21, 0x00	; 0
    1572:	8a f0       	brmi	.+34     	; 0x1596 <__mulsf3_pse+0x84>
    1574:	e1 f0       	breq	.+56     	; 0x15ae <__mulsf3_pse+0x9c>
    1576:	88 23       	and	r24, r24
    1578:	4a f0       	brmi	.+18     	; 0x158c <__mulsf3_pse+0x7a>
    157a:	ee 0f       	add	r30, r30
    157c:	ff 1f       	adc	r31, r31
    157e:	bb 1f       	adc	r27, r27
    1580:	66 1f       	adc	r22, r22
    1582:	77 1f       	adc	r23, r23
    1584:	88 1f       	adc	r24, r24
    1586:	91 50       	subi	r25, 0x01	; 1
    1588:	50 40       	sbci	r21, 0x00	; 0
    158a:	a9 f7       	brne	.-22     	; 0x1576 <__mulsf3_pse+0x64>
    158c:	9e 3f       	cpi	r25, 0xFE	; 254
    158e:	51 05       	cpc	r21, r1
    1590:	70 f0       	brcs	.+28     	; 0x15ae <__mulsf3_pse+0x9c>
    1592:	86 ce       	rjmp	.-756    	; 0x12a0 <__fp_inf>
    1594:	f5 ce       	rjmp	.-534    	; 0x1380 <__fp_szero>
    1596:	5f 3f       	cpi	r21, 0xFF	; 255
    1598:	ec f3       	brlt	.-6      	; 0x1594 <__mulsf3_pse+0x82>
    159a:	98 3e       	cpi	r25, 0xE8	; 232
    159c:	dc f3       	brlt	.-10     	; 0x1594 <__mulsf3_pse+0x82>
    159e:	86 95       	lsr	r24
    15a0:	77 95       	ror	r23
    15a2:	67 95       	ror	r22
    15a4:	b7 95       	ror	r27
    15a6:	f7 95       	ror	r31
    15a8:	e7 95       	ror	r30
    15aa:	9f 5f       	subi	r25, 0xFF	; 255
    15ac:	c1 f7       	brne	.-16     	; 0x159e <__mulsf3_pse+0x8c>
    15ae:	fe 2b       	or	r31, r30
    15b0:	88 0f       	add	r24, r24
    15b2:	91 1d       	adc	r25, r1
    15b4:	96 95       	lsr	r25
    15b6:	87 95       	ror	r24
    15b8:	97 f9       	bld	r25, 7
    15ba:	08 95       	ret

000015bc <pow>:
    15bc:	fa 01       	movw	r30, r20
    15be:	ee 0f       	add	r30, r30
    15c0:	ff 1f       	adc	r31, r31
    15c2:	30 96       	adiw	r30, 0x00	; 0
    15c4:	21 05       	cpc	r18, r1
    15c6:	31 05       	cpc	r19, r1
    15c8:	99 f1       	breq	.+102    	; 0x1630 <pow+0x74>
    15ca:	61 15       	cp	r22, r1
    15cc:	71 05       	cpc	r23, r1
    15ce:	61 f4       	brne	.+24     	; 0x15e8 <pow+0x2c>
    15d0:	80 38       	cpi	r24, 0x80	; 128
    15d2:	bf e3       	ldi	r27, 0x3F	; 63
    15d4:	9b 07       	cpc	r25, r27
    15d6:	49 f1       	breq	.+82     	; 0x162a <pow+0x6e>
    15d8:	68 94       	set
    15da:	90 38       	cpi	r25, 0x80	; 128
    15dc:	81 05       	cpc	r24, r1
    15de:	61 f0       	breq	.+24     	; 0x15f8 <pow+0x3c>
    15e0:	80 38       	cpi	r24, 0x80	; 128
    15e2:	bf ef       	ldi	r27, 0xFF	; 255
    15e4:	9b 07       	cpc	r25, r27
    15e6:	41 f0       	breq	.+16     	; 0x15f8 <pow+0x3c>
    15e8:	99 23       	and	r25, r25
    15ea:	42 f5       	brpl	.+80     	; 0x163c <pow+0x80>
    15ec:	ff 3f       	cpi	r31, 0xFF	; 255
    15ee:	e1 05       	cpc	r30, r1
    15f0:	31 05       	cpc	r19, r1
    15f2:	21 05       	cpc	r18, r1
    15f4:	11 f1       	breq	.+68     	; 0x163a <pow+0x7e>
    15f6:	e8 94       	clt
    15f8:	08 94       	sec
    15fa:	e7 95       	ror	r30
    15fc:	d9 01       	movw	r26, r18
    15fe:	aa 23       	and	r26, r26
    1600:	29 f4       	brne	.+10     	; 0x160c <pow+0x50>
    1602:	ab 2f       	mov	r26, r27
    1604:	be 2f       	mov	r27, r30
    1606:	f8 5f       	subi	r31, 0xF8	; 248
    1608:	d0 f3       	brcs	.-12     	; 0x15fe <pow+0x42>
    160a:	10 c0       	rjmp	.+32     	; 0x162c <pow+0x70>
    160c:	ff 5f       	subi	r31, 0xFF	; 255
    160e:	70 f4       	brcc	.+28     	; 0x162c <pow+0x70>
    1610:	a6 95       	lsr	r26
    1612:	e0 f7       	brcc	.-8      	; 0x160c <pow+0x50>
    1614:	f7 39       	cpi	r31, 0x97	; 151
    1616:	50 f0       	brcs	.+20     	; 0x162c <pow+0x70>
    1618:	19 f0       	breq	.+6      	; 0x1620 <pow+0x64>
    161a:	ff 3a       	cpi	r31, 0xAF	; 175
    161c:	38 f4       	brcc	.+14     	; 0x162c <pow+0x70>
    161e:	9f 77       	andi	r25, 0x7F	; 127
    1620:	9f 93       	push	r25
    1622:	0c d0       	rcall	.+24     	; 0x163c <pow+0x80>
    1624:	0f 90       	pop	r0
    1626:	07 fc       	sbrc	r0, 7
    1628:	90 58       	subi	r25, 0x80	; 128
    162a:	08 95       	ret
    162c:	3e f0       	brts	.+14     	; 0x163c <pow+0x80>
    162e:	3e ce       	rjmp	.-900    	; 0x12ac <__fp_nan>
    1630:	60 e0       	ldi	r22, 0x00	; 0
    1632:	70 e0       	ldi	r23, 0x00	; 0
    1634:	80 e8       	ldi	r24, 0x80	; 128
    1636:	9f e3       	ldi	r25, 0x3F	; 63
    1638:	08 95       	ret
    163a:	4f e7       	ldi	r20, 0x7F	; 127
    163c:	9f 77       	andi	r25, 0x7F	; 127
    163e:	5f 93       	push	r21
    1640:	4f 93       	push	r20
    1642:	3f 93       	push	r19
    1644:	2f 93       	push	r18
    1646:	e4 de       	rcall	.-568    	; 0x1410 <log>
    1648:	2f 91       	pop	r18
    164a:	3f 91       	pop	r19
    164c:	4f 91       	pop	r20
    164e:	5f 91       	pop	r21
    1650:	52 df       	rcall	.-348    	; 0x14f6 <__mulsf3>
    1652:	8c cd       	rjmp	.-1256   	; 0x116c <exp>

00001654 <__fp_mpack>:
    1654:	9f 3f       	cpi	r25, 0xFF	; 255
    1656:	31 f0       	breq	.+12     	; 0x1664 <__fp_mpack_finite+0xc>

00001658 <__fp_mpack_finite>:
    1658:	91 50       	subi	r25, 0x01	; 1
    165a:	20 f4       	brcc	.+8      	; 0x1664 <__fp_mpack_finite+0xc>
    165c:	87 95       	ror	r24
    165e:	77 95       	ror	r23
    1660:	67 95       	ror	r22
    1662:	b7 95       	ror	r27
    1664:	88 0f       	add	r24, r24
    1666:	91 1d       	adc	r25, r1
    1668:	96 95       	lsr	r25
    166a:	87 95       	ror	r24
    166c:	97 f9       	bld	r25, 7
    166e:	08 95       	ret

00001670 <vfprintf>:
    1670:	2f 92       	push	r2
    1672:	3f 92       	push	r3
    1674:	4f 92       	push	r4
    1676:	5f 92       	push	r5
    1678:	6f 92       	push	r6
    167a:	7f 92       	push	r7
    167c:	8f 92       	push	r8
    167e:	9f 92       	push	r9
    1680:	af 92       	push	r10
    1682:	bf 92       	push	r11
    1684:	cf 92       	push	r12
    1686:	df 92       	push	r13
    1688:	ef 92       	push	r14
    168a:	ff 92       	push	r15
    168c:	0f 93       	push	r16
    168e:	1f 93       	push	r17
    1690:	cf 93       	push	r28
    1692:	df 93       	push	r29
    1694:	cd b7       	in	r28, 0x3d	; 61
    1696:	de b7       	in	r29, 0x3e	; 62
    1698:	60 97       	sbiw	r28, 0x10	; 16
    169a:	0f b6       	in	r0, 0x3f	; 63
    169c:	f8 94       	cli
    169e:	de bf       	out	0x3e, r29	; 62
    16a0:	0f be       	out	0x3f, r0	; 63
    16a2:	cd bf       	out	0x3d, r28	; 61
    16a4:	7c 01       	movw	r14, r24
    16a6:	1b 01       	movw	r2, r22
    16a8:	6a 01       	movw	r12, r20
    16aa:	fc 01       	movw	r30, r24
    16ac:	17 82       	std	Z+7, r1	; 0x07
    16ae:	16 82       	std	Z+6, r1	; 0x06
    16b0:	83 81       	ldd	r24, Z+3	; 0x03
    16b2:	81 ff       	sbrs	r24, 1
    16b4:	2a c3       	rjmp	.+1620   	; 0x1d0a <vfprintf+0x69a>
    16b6:	9e 01       	movw	r18, r28
    16b8:	2f 5f       	subi	r18, 0xFF	; 255
    16ba:	3f 4f       	sbci	r19, 0xFF	; 255
    16bc:	39 01       	movw	r6, r18
    16be:	f7 01       	movw	r30, r14
    16c0:	93 81       	ldd	r25, Z+3	; 0x03
    16c2:	f1 01       	movw	r30, r2
    16c4:	93 fd       	sbrc	r25, 3
    16c6:	85 91       	lpm	r24, Z+
    16c8:	93 ff       	sbrs	r25, 3
    16ca:	81 91       	ld	r24, Z+
    16cc:	1f 01       	movw	r2, r30
    16ce:	88 23       	and	r24, r24
    16d0:	09 f4       	brne	.+2      	; 0x16d4 <vfprintf+0x64>
    16d2:	17 c3       	rjmp	.+1582   	; 0x1d02 <vfprintf+0x692>
    16d4:	85 32       	cpi	r24, 0x25	; 37
    16d6:	39 f4       	brne	.+14     	; 0x16e6 <vfprintf+0x76>
    16d8:	93 fd       	sbrc	r25, 3
    16da:	85 91       	lpm	r24, Z+
    16dc:	93 ff       	sbrs	r25, 3
    16de:	81 91       	ld	r24, Z+
    16e0:	1f 01       	movw	r2, r30
    16e2:	85 32       	cpi	r24, 0x25	; 37
    16e4:	31 f4       	brne	.+12     	; 0x16f2 <vfprintf+0x82>
    16e6:	b7 01       	movw	r22, r14
    16e8:	90 e0       	ldi	r25, 0x00	; 0
    16ea:	86 d4       	rcall	.+2316   	; 0x1ff8 <fputc>
    16ec:	56 01       	movw	r10, r12
    16ee:	65 01       	movw	r12, r10
    16f0:	e6 cf       	rjmp	.-52     	; 0x16be <vfprintf+0x4e>
    16f2:	10 e0       	ldi	r17, 0x00	; 0
    16f4:	51 2c       	mov	r5, r1
    16f6:	91 2c       	mov	r9, r1
    16f8:	ff e1       	ldi	r31, 0x1F	; 31
    16fa:	f9 15       	cp	r31, r9
    16fc:	d8 f0       	brcs	.+54     	; 0x1734 <vfprintf+0xc4>
    16fe:	8b 32       	cpi	r24, 0x2B	; 43
    1700:	79 f0       	breq	.+30     	; 0x1720 <vfprintf+0xb0>
    1702:	38 f4       	brcc	.+14     	; 0x1712 <vfprintf+0xa2>
    1704:	80 32       	cpi	r24, 0x20	; 32
    1706:	79 f0       	breq	.+30     	; 0x1726 <vfprintf+0xb6>
    1708:	83 32       	cpi	r24, 0x23	; 35
    170a:	a1 f4       	brne	.+40     	; 0x1734 <vfprintf+0xc4>
    170c:	f9 2d       	mov	r31, r9
    170e:	f0 61       	ori	r31, 0x10	; 16
    1710:	2e c0       	rjmp	.+92     	; 0x176e <vfprintf+0xfe>
    1712:	8d 32       	cpi	r24, 0x2D	; 45
    1714:	61 f0       	breq	.+24     	; 0x172e <vfprintf+0xbe>
    1716:	80 33       	cpi	r24, 0x30	; 48
    1718:	69 f4       	brne	.+26     	; 0x1734 <vfprintf+0xc4>
    171a:	29 2d       	mov	r18, r9
    171c:	21 60       	ori	r18, 0x01	; 1
    171e:	2d c0       	rjmp	.+90     	; 0x177a <vfprintf+0x10a>
    1720:	39 2d       	mov	r19, r9
    1722:	32 60       	ori	r19, 0x02	; 2
    1724:	93 2e       	mov	r9, r19
    1726:	89 2d       	mov	r24, r9
    1728:	84 60       	ori	r24, 0x04	; 4
    172a:	98 2e       	mov	r9, r24
    172c:	2a c0       	rjmp	.+84     	; 0x1782 <vfprintf+0x112>
    172e:	e9 2d       	mov	r30, r9
    1730:	e8 60       	ori	r30, 0x08	; 8
    1732:	15 c0       	rjmp	.+42     	; 0x175e <vfprintf+0xee>
    1734:	97 fc       	sbrc	r9, 7
    1736:	2d c0       	rjmp	.+90     	; 0x1792 <vfprintf+0x122>
    1738:	20 ed       	ldi	r18, 0xD0	; 208
    173a:	28 0f       	add	r18, r24
    173c:	2a 30       	cpi	r18, 0x0A	; 10
    173e:	88 f4       	brcc	.+34     	; 0x1762 <vfprintf+0xf2>
    1740:	96 fe       	sbrs	r9, 6
    1742:	06 c0       	rjmp	.+12     	; 0x1750 <vfprintf+0xe0>
    1744:	3a e0       	ldi	r19, 0x0A	; 10
    1746:	13 9f       	mul	r17, r19
    1748:	20 0d       	add	r18, r0
    174a:	11 24       	eor	r1, r1
    174c:	12 2f       	mov	r17, r18
    174e:	19 c0       	rjmp	.+50     	; 0x1782 <vfprintf+0x112>
    1750:	8a e0       	ldi	r24, 0x0A	; 10
    1752:	58 9e       	mul	r5, r24
    1754:	20 0d       	add	r18, r0
    1756:	11 24       	eor	r1, r1
    1758:	52 2e       	mov	r5, r18
    175a:	e9 2d       	mov	r30, r9
    175c:	e0 62       	ori	r30, 0x20	; 32
    175e:	9e 2e       	mov	r9, r30
    1760:	10 c0       	rjmp	.+32     	; 0x1782 <vfprintf+0x112>
    1762:	8e 32       	cpi	r24, 0x2E	; 46
    1764:	31 f4       	brne	.+12     	; 0x1772 <vfprintf+0x102>
    1766:	96 fc       	sbrc	r9, 6
    1768:	cc c2       	rjmp	.+1432   	; 0x1d02 <vfprintf+0x692>
    176a:	f9 2d       	mov	r31, r9
    176c:	f0 64       	ori	r31, 0x40	; 64
    176e:	9f 2e       	mov	r9, r31
    1770:	08 c0       	rjmp	.+16     	; 0x1782 <vfprintf+0x112>
    1772:	8c 36       	cpi	r24, 0x6C	; 108
    1774:	21 f4       	brne	.+8      	; 0x177e <vfprintf+0x10e>
    1776:	29 2d       	mov	r18, r9
    1778:	20 68       	ori	r18, 0x80	; 128
    177a:	92 2e       	mov	r9, r18
    177c:	02 c0       	rjmp	.+4      	; 0x1782 <vfprintf+0x112>
    177e:	88 36       	cpi	r24, 0x68	; 104
    1780:	41 f4       	brne	.+16     	; 0x1792 <vfprintf+0x122>
    1782:	f1 01       	movw	r30, r2
    1784:	93 fd       	sbrc	r25, 3
    1786:	85 91       	lpm	r24, Z+
    1788:	93 ff       	sbrs	r25, 3
    178a:	81 91       	ld	r24, Z+
    178c:	1f 01       	movw	r2, r30
    178e:	81 11       	cpse	r24, r1
    1790:	b3 cf       	rjmp	.-154    	; 0x16f8 <vfprintf+0x88>
    1792:	9b eb       	ldi	r25, 0xBB	; 187
    1794:	98 0f       	add	r25, r24
    1796:	93 30       	cpi	r25, 0x03	; 3
    1798:	20 f4       	brcc	.+8      	; 0x17a2 <vfprintf+0x132>
    179a:	99 2d       	mov	r25, r9
    179c:	90 61       	ori	r25, 0x10	; 16
    179e:	80 5e       	subi	r24, 0xE0	; 224
    17a0:	07 c0       	rjmp	.+14     	; 0x17b0 <vfprintf+0x140>
    17a2:	9b e9       	ldi	r25, 0x9B	; 155
    17a4:	98 0f       	add	r25, r24
    17a6:	93 30       	cpi	r25, 0x03	; 3
    17a8:	08 f0       	brcs	.+2      	; 0x17ac <vfprintf+0x13c>
    17aa:	59 c1       	rjmp	.+690    	; 0x1a5e <vfprintf+0x3ee>
    17ac:	99 2d       	mov	r25, r9
    17ae:	9f 7e       	andi	r25, 0xEF	; 239
    17b0:	96 ff       	sbrs	r25, 6
    17b2:	16 e0       	ldi	r17, 0x06	; 6
    17b4:	9f 73       	andi	r25, 0x3F	; 63
    17b6:	99 2e       	mov	r9, r25
    17b8:	85 36       	cpi	r24, 0x65	; 101
    17ba:	19 f4       	brne	.+6      	; 0x17c2 <vfprintf+0x152>
    17bc:	90 64       	ori	r25, 0x40	; 64
    17be:	99 2e       	mov	r9, r25
    17c0:	08 c0       	rjmp	.+16     	; 0x17d2 <vfprintf+0x162>
    17c2:	86 36       	cpi	r24, 0x66	; 102
    17c4:	21 f4       	brne	.+8      	; 0x17ce <vfprintf+0x15e>
    17c6:	39 2f       	mov	r19, r25
    17c8:	30 68       	ori	r19, 0x80	; 128
    17ca:	93 2e       	mov	r9, r19
    17cc:	02 c0       	rjmp	.+4      	; 0x17d2 <vfprintf+0x162>
    17ce:	11 11       	cpse	r17, r1
    17d0:	11 50       	subi	r17, 0x01	; 1
    17d2:	97 fe       	sbrs	r9, 7
    17d4:	07 c0       	rjmp	.+14     	; 0x17e4 <vfprintf+0x174>
    17d6:	1c 33       	cpi	r17, 0x3C	; 60
    17d8:	50 f4       	brcc	.+20     	; 0x17ee <vfprintf+0x17e>
    17da:	44 24       	eor	r4, r4
    17dc:	43 94       	inc	r4
    17de:	41 0e       	add	r4, r17
    17e0:	27 e0       	ldi	r18, 0x07	; 7
    17e2:	0b c0       	rjmp	.+22     	; 0x17fa <vfprintf+0x18a>
    17e4:	18 30       	cpi	r17, 0x08	; 8
    17e6:	38 f0       	brcs	.+14     	; 0x17f6 <vfprintf+0x186>
    17e8:	27 e0       	ldi	r18, 0x07	; 7
    17ea:	17 e0       	ldi	r17, 0x07	; 7
    17ec:	05 c0       	rjmp	.+10     	; 0x17f8 <vfprintf+0x188>
    17ee:	27 e0       	ldi	r18, 0x07	; 7
    17f0:	9c e3       	ldi	r25, 0x3C	; 60
    17f2:	49 2e       	mov	r4, r25
    17f4:	02 c0       	rjmp	.+4      	; 0x17fa <vfprintf+0x18a>
    17f6:	21 2f       	mov	r18, r17
    17f8:	41 2c       	mov	r4, r1
    17fa:	56 01       	movw	r10, r12
    17fc:	84 e0       	ldi	r24, 0x04	; 4
    17fe:	a8 0e       	add	r10, r24
    1800:	b1 1c       	adc	r11, r1
    1802:	f6 01       	movw	r30, r12
    1804:	60 81       	ld	r22, Z
    1806:	71 81       	ldd	r23, Z+1	; 0x01
    1808:	82 81       	ldd	r24, Z+2	; 0x02
    180a:	93 81       	ldd	r25, Z+3	; 0x03
    180c:	04 2d       	mov	r16, r4
    180e:	a3 01       	movw	r20, r6
    1810:	e2 d2       	rcall	.+1476   	; 0x1dd6 <__ftoa_engine>
    1812:	6c 01       	movw	r12, r24
    1814:	f9 81       	ldd	r31, Y+1	; 0x01
    1816:	fc 87       	std	Y+12, r31	; 0x0c
    1818:	f0 ff       	sbrs	r31, 0
    181a:	02 c0       	rjmp	.+4      	; 0x1820 <vfprintf+0x1b0>
    181c:	f3 ff       	sbrs	r31, 3
    181e:	06 c0       	rjmp	.+12     	; 0x182c <vfprintf+0x1bc>
    1820:	91 fc       	sbrc	r9, 1
    1822:	06 c0       	rjmp	.+12     	; 0x1830 <vfprintf+0x1c0>
    1824:	92 fe       	sbrs	r9, 2
    1826:	06 c0       	rjmp	.+12     	; 0x1834 <vfprintf+0x1c4>
    1828:	00 e2       	ldi	r16, 0x20	; 32
    182a:	05 c0       	rjmp	.+10     	; 0x1836 <vfprintf+0x1c6>
    182c:	0d e2       	ldi	r16, 0x2D	; 45
    182e:	03 c0       	rjmp	.+6      	; 0x1836 <vfprintf+0x1c6>
    1830:	0b e2       	ldi	r16, 0x2B	; 43
    1832:	01 c0       	rjmp	.+2      	; 0x1836 <vfprintf+0x1c6>
    1834:	00 e0       	ldi	r16, 0x00	; 0
    1836:	8c 85       	ldd	r24, Y+12	; 0x0c
    1838:	8c 70       	andi	r24, 0x0C	; 12
    183a:	19 f0       	breq	.+6      	; 0x1842 <vfprintf+0x1d2>
    183c:	01 11       	cpse	r16, r1
    183e:	43 c2       	rjmp	.+1158   	; 0x1cc6 <vfprintf+0x656>
    1840:	80 c2       	rjmp	.+1280   	; 0x1d42 <vfprintf+0x6d2>
    1842:	97 fe       	sbrs	r9, 7
    1844:	10 c0       	rjmp	.+32     	; 0x1866 <vfprintf+0x1f6>
    1846:	4c 0c       	add	r4, r12
    1848:	fc 85       	ldd	r31, Y+12	; 0x0c
    184a:	f4 ff       	sbrs	r31, 4
    184c:	04 c0       	rjmp	.+8      	; 0x1856 <vfprintf+0x1e6>
    184e:	8a 81       	ldd	r24, Y+2	; 0x02
    1850:	81 33       	cpi	r24, 0x31	; 49
    1852:	09 f4       	brne	.+2      	; 0x1856 <vfprintf+0x1e6>
    1854:	4a 94       	dec	r4
    1856:	14 14       	cp	r1, r4
    1858:	74 f5       	brge	.+92     	; 0x18b6 <vfprintf+0x246>
    185a:	28 e0       	ldi	r18, 0x08	; 8
    185c:	24 15       	cp	r18, r4
    185e:	78 f5       	brcc	.+94     	; 0x18be <vfprintf+0x24e>
    1860:	88 e0       	ldi	r24, 0x08	; 8
    1862:	48 2e       	mov	r4, r24
    1864:	2c c0       	rjmp	.+88     	; 0x18be <vfprintf+0x24e>
    1866:	96 fc       	sbrc	r9, 6
    1868:	2a c0       	rjmp	.+84     	; 0x18be <vfprintf+0x24e>
    186a:	81 2f       	mov	r24, r17
    186c:	90 e0       	ldi	r25, 0x00	; 0
    186e:	8c 15       	cp	r24, r12
    1870:	9d 05       	cpc	r25, r13
    1872:	9c f0       	brlt	.+38     	; 0x189a <vfprintf+0x22a>
    1874:	3c ef       	ldi	r19, 0xFC	; 252
    1876:	c3 16       	cp	r12, r19
    1878:	3f ef       	ldi	r19, 0xFF	; 255
    187a:	d3 06       	cpc	r13, r19
    187c:	74 f0       	brlt	.+28     	; 0x189a <vfprintf+0x22a>
    187e:	89 2d       	mov	r24, r9
    1880:	80 68       	ori	r24, 0x80	; 128
    1882:	98 2e       	mov	r9, r24
    1884:	0a c0       	rjmp	.+20     	; 0x189a <vfprintf+0x22a>
    1886:	e2 e0       	ldi	r30, 0x02	; 2
    1888:	f0 e0       	ldi	r31, 0x00	; 0
    188a:	ec 0f       	add	r30, r28
    188c:	fd 1f       	adc	r31, r29
    188e:	e1 0f       	add	r30, r17
    1890:	f1 1d       	adc	r31, r1
    1892:	80 81       	ld	r24, Z
    1894:	80 33       	cpi	r24, 0x30	; 48
    1896:	19 f4       	brne	.+6      	; 0x189e <vfprintf+0x22e>
    1898:	11 50       	subi	r17, 0x01	; 1
    189a:	11 11       	cpse	r17, r1
    189c:	f4 cf       	rjmp	.-24     	; 0x1886 <vfprintf+0x216>
    189e:	97 fe       	sbrs	r9, 7
    18a0:	0e c0       	rjmp	.+28     	; 0x18be <vfprintf+0x24e>
    18a2:	44 24       	eor	r4, r4
    18a4:	43 94       	inc	r4
    18a6:	41 0e       	add	r4, r17
    18a8:	81 2f       	mov	r24, r17
    18aa:	90 e0       	ldi	r25, 0x00	; 0
    18ac:	c8 16       	cp	r12, r24
    18ae:	d9 06       	cpc	r13, r25
    18b0:	2c f4       	brge	.+10     	; 0x18bc <vfprintf+0x24c>
    18b2:	1c 19       	sub	r17, r12
    18b4:	04 c0       	rjmp	.+8      	; 0x18be <vfprintf+0x24e>
    18b6:	44 24       	eor	r4, r4
    18b8:	43 94       	inc	r4
    18ba:	01 c0       	rjmp	.+2      	; 0x18be <vfprintf+0x24e>
    18bc:	10 e0       	ldi	r17, 0x00	; 0
    18be:	97 fe       	sbrs	r9, 7
    18c0:	06 c0       	rjmp	.+12     	; 0x18ce <vfprintf+0x25e>
    18c2:	1c 14       	cp	r1, r12
    18c4:	1d 04       	cpc	r1, r13
    18c6:	34 f4       	brge	.+12     	; 0x18d4 <vfprintf+0x264>
    18c8:	c6 01       	movw	r24, r12
    18ca:	01 96       	adiw	r24, 0x01	; 1
    18cc:	05 c0       	rjmp	.+10     	; 0x18d8 <vfprintf+0x268>
    18ce:	85 e0       	ldi	r24, 0x05	; 5
    18d0:	90 e0       	ldi	r25, 0x00	; 0
    18d2:	02 c0       	rjmp	.+4      	; 0x18d8 <vfprintf+0x268>
    18d4:	81 e0       	ldi	r24, 0x01	; 1
    18d6:	90 e0       	ldi	r25, 0x00	; 0
    18d8:	01 11       	cpse	r16, r1
    18da:	01 96       	adiw	r24, 0x01	; 1
    18dc:	11 23       	and	r17, r17
    18de:	31 f0       	breq	.+12     	; 0x18ec <vfprintf+0x27c>
    18e0:	21 2f       	mov	r18, r17
    18e2:	30 e0       	ldi	r19, 0x00	; 0
    18e4:	2f 5f       	subi	r18, 0xFF	; 255
    18e6:	3f 4f       	sbci	r19, 0xFF	; 255
    18e8:	82 0f       	add	r24, r18
    18ea:	93 1f       	adc	r25, r19
    18ec:	25 2d       	mov	r18, r5
    18ee:	30 e0       	ldi	r19, 0x00	; 0
    18f0:	82 17       	cp	r24, r18
    18f2:	93 07       	cpc	r25, r19
    18f4:	14 f4       	brge	.+4      	; 0x18fa <vfprintf+0x28a>
    18f6:	58 1a       	sub	r5, r24
    18f8:	01 c0       	rjmp	.+2      	; 0x18fc <vfprintf+0x28c>
    18fa:	51 2c       	mov	r5, r1
    18fc:	89 2d       	mov	r24, r9
    18fe:	89 70       	andi	r24, 0x09	; 9
    1900:	41 f4       	brne	.+16     	; 0x1912 <vfprintf+0x2a2>
    1902:	55 20       	and	r5, r5
    1904:	31 f0       	breq	.+12     	; 0x1912 <vfprintf+0x2a2>
    1906:	b7 01       	movw	r22, r14
    1908:	80 e2       	ldi	r24, 0x20	; 32
    190a:	90 e0       	ldi	r25, 0x00	; 0
    190c:	75 d3       	rcall	.+1770   	; 0x1ff8 <fputc>
    190e:	5a 94       	dec	r5
    1910:	f8 cf       	rjmp	.-16     	; 0x1902 <vfprintf+0x292>
    1912:	00 23       	and	r16, r16
    1914:	21 f0       	breq	.+8      	; 0x191e <vfprintf+0x2ae>
    1916:	b7 01       	movw	r22, r14
    1918:	80 2f       	mov	r24, r16
    191a:	90 e0       	ldi	r25, 0x00	; 0
    191c:	6d d3       	rcall	.+1754   	; 0x1ff8 <fputc>
    191e:	93 fc       	sbrc	r9, 3
    1920:	08 c0       	rjmp	.+16     	; 0x1932 <vfprintf+0x2c2>
    1922:	55 20       	and	r5, r5
    1924:	31 f0       	breq	.+12     	; 0x1932 <vfprintf+0x2c2>
    1926:	b7 01       	movw	r22, r14
    1928:	80 e3       	ldi	r24, 0x30	; 48
    192a:	90 e0       	ldi	r25, 0x00	; 0
    192c:	65 d3       	rcall	.+1738   	; 0x1ff8 <fputc>
    192e:	5a 94       	dec	r5
    1930:	f8 cf       	rjmp	.-16     	; 0x1922 <vfprintf+0x2b2>
    1932:	97 fe       	sbrs	r9, 7
    1934:	4a c0       	rjmp	.+148    	; 0x19ca <vfprintf+0x35a>
    1936:	46 01       	movw	r8, r12
    1938:	d7 fe       	sbrs	r13, 7
    193a:	02 c0       	rjmp	.+4      	; 0x1940 <vfprintf+0x2d0>
    193c:	81 2c       	mov	r8, r1
    193e:	91 2c       	mov	r9, r1
    1940:	c6 01       	movw	r24, r12
    1942:	88 19       	sub	r24, r8
    1944:	99 09       	sbc	r25, r9
    1946:	f3 01       	movw	r30, r6
    1948:	e8 0f       	add	r30, r24
    194a:	f9 1f       	adc	r31, r25
    194c:	fe 87       	std	Y+14, r31	; 0x0e
    194e:	ed 87       	std	Y+13, r30	; 0x0d
    1950:	96 01       	movw	r18, r12
    1952:	24 19       	sub	r18, r4
    1954:	31 09       	sbc	r19, r1
    1956:	38 8b       	std	Y+16, r19	; 0x10
    1958:	2f 87       	std	Y+15, r18	; 0x0f
    195a:	01 2f       	mov	r16, r17
    195c:	10 e0       	ldi	r17, 0x00	; 0
    195e:	11 95       	neg	r17
    1960:	01 95       	neg	r16
    1962:	11 09       	sbc	r17, r1
    1964:	3f ef       	ldi	r19, 0xFF	; 255
    1966:	83 16       	cp	r8, r19
    1968:	93 06       	cpc	r9, r19
    196a:	21 f4       	brne	.+8      	; 0x1974 <vfprintf+0x304>
    196c:	b7 01       	movw	r22, r14
    196e:	8e e2       	ldi	r24, 0x2E	; 46
    1970:	90 e0       	ldi	r25, 0x00	; 0
    1972:	42 d3       	rcall	.+1668   	; 0x1ff8 <fputc>
    1974:	c8 14       	cp	r12, r8
    1976:	d9 04       	cpc	r13, r9
    1978:	4c f0       	brlt	.+18     	; 0x198c <vfprintf+0x31c>
    197a:	8f 85       	ldd	r24, Y+15	; 0x0f
    197c:	98 89       	ldd	r25, Y+16	; 0x10
    197e:	88 15       	cp	r24, r8
    1980:	99 05       	cpc	r25, r9
    1982:	24 f4       	brge	.+8      	; 0x198c <vfprintf+0x31c>
    1984:	ed 85       	ldd	r30, Y+13	; 0x0d
    1986:	fe 85       	ldd	r31, Y+14	; 0x0e
    1988:	81 81       	ldd	r24, Z+1	; 0x01
    198a:	01 c0       	rjmp	.+2      	; 0x198e <vfprintf+0x31e>
    198c:	80 e3       	ldi	r24, 0x30	; 48
    198e:	f1 e0       	ldi	r31, 0x01	; 1
    1990:	8f 1a       	sub	r8, r31
    1992:	91 08       	sbc	r9, r1
    1994:	2d 85       	ldd	r18, Y+13	; 0x0d
    1996:	3e 85       	ldd	r19, Y+14	; 0x0e
    1998:	2f 5f       	subi	r18, 0xFF	; 255
    199a:	3f 4f       	sbci	r19, 0xFF	; 255
    199c:	3e 87       	std	Y+14, r19	; 0x0e
    199e:	2d 87       	std	Y+13, r18	; 0x0d
    19a0:	80 16       	cp	r8, r16
    19a2:	91 06       	cpc	r9, r17
    19a4:	24 f0       	brlt	.+8      	; 0x19ae <vfprintf+0x33e>
    19a6:	b7 01       	movw	r22, r14
    19a8:	90 e0       	ldi	r25, 0x00	; 0
    19aa:	26 d3       	rcall	.+1612   	; 0x1ff8 <fputc>
    19ac:	db cf       	rjmp	.-74     	; 0x1964 <vfprintf+0x2f4>
    19ae:	c8 14       	cp	r12, r8
    19b0:	d9 04       	cpc	r13, r9
    19b2:	41 f4       	brne	.+16     	; 0x19c4 <vfprintf+0x354>
    19b4:	9a 81       	ldd	r25, Y+2	; 0x02
    19b6:	96 33       	cpi	r25, 0x36	; 54
    19b8:	20 f4       	brcc	.+8      	; 0x19c2 <vfprintf+0x352>
    19ba:	95 33       	cpi	r25, 0x35	; 53
    19bc:	19 f4       	brne	.+6      	; 0x19c4 <vfprintf+0x354>
    19be:	3c 85       	ldd	r19, Y+12	; 0x0c
    19c0:	34 ff       	sbrs	r19, 4
    19c2:	81 e3       	ldi	r24, 0x31	; 49
    19c4:	b7 01       	movw	r22, r14
    19c6:	90 e0       	ldi	r25, 0x00	; 0
    19c8:	48 c0       	rjmp	.+144    	; 0x1a5a <vfprintf+0x3ea>
    19ca:	8a 81       	ldd	r24, Y+2	; 0x02
    19cc:	81 33       	cpi	r24, 0x31	; 49
    19ce:	19 f0       	breq	.+6      	; 0x19d6 <vfprintf+0x366>
    19d0:	9c 85       	ldd	r25, Y+12	; 0x0c
    19d2:	9f 7e       	andi	r25, 0xEF	; 239
    19d4:	9c 87       	std	Y+12, r25	; 0x0c
    19d6:	b7 01       	movw	r22, r14
    19d8:	90 e0       	ldi	r25, 0x00	; 0
    19da:	0e d3       	rcall	.+1564   	; 0x1ff8 <fputc>
    19dc:	11 11       	cpse	r17, r1
    19de:	05 c0       	rjmp	.+10     	; 0x19ea <vfprintf+0x37a>
    19e0:	94 fc       	sbrc	r9, 4
    19e2:	16 c0       	rjmp	.+44     	; 0x1a10 <vfprintf+0x3a0>
    19e4:	85 e6       	ldi	r24, 0x65	; 101
    19e6:	90 e0       	ldi	r25, 0x00	; 0
    19e8:	15 c0       	rjmp	.+42     	; 0x1a14 <vfprintf+0x3a4>
    19ea:	b7 01       	movw	r22, r14
    19ec:	8e e2       	ldi	r24, 0x2E	; 46
    19ee:	90 e0       	ldi	r25, 0x00	; 0
    19f0:	03 d3       	rcall	.+1542   	; 0x1ff8 <fputc>
    19f2:	1e 5f       	subi	r17, 0xFE	; 254
    19f4:	82 e0       	ldi	r24, 0x02	; 2
    19f6:	01 e0       	ldi	r16, 0x01	; 1
    19f8:	08 0f       	add	r16, r24
    19fa:	f3 01       	movw	r30, r6
    19fc:	e8 0f       	add	r30, r24
    19fe:	f1 1d       	adc	r31, r1
    1a00:	80 81       	ld	r24, Z
    1a02:	b7 01       	movw	r22, r14
    1a04:	90 e0       	ldi	r25, 0x00	; 0
    1a06:	f8 d2       	rcall	.+1520   	; 0x1ff8 <fputc>
    1a08:	80 2f       	mov	r24, r16
    1a0a:	01 13       	cpse	r16, r17
    1a0c:	f4 cf       	rjmp	.-24     	; 0x19f6 <vfprintf+0x386>
    1a0e:	e8 cf       	rjmp	.-48     	; 0x19e0 <vfprintf+0x370>
    1a10:	85 e4       	ldi	r24, 0x45	; 69
    1a12:	90 e0       	ldi	r25, 0x00	; 0
    1a14:	b7 01       	movw	r22, r14
    1a16:	f0 d2       	rcall	.+1504   	; 0x1ff8 <fputc>
    1a18:	d7 fc       	sbrc	r13, 7
    1a1a:	06 c0       	rjmp	.+12     	; 0x1a28 <vfprintf+0x3b8>
    1a1c:	c1 14       	cp	r12, r1
    1a1e:	d1 04       	cpc	r13, r1
    1a20:	41 f4       	brne	.+16     	; 0x1a32 <vfprintf+0x3c2>
    1a22:	ec 85       	ldd	r30, Y+12	; 0x0c
    1a24:	e4 ff       	sbrs	r30, 4
    1a26:	05 c0       	rjmp	.+10     	; 0x1a32 <vfprintf+0x3c2>
    1a28:	d1 94       	neg	r13
    1a2a:	c1 94       	neg	r12
    1a2c:	d1 08       	sbc	r13, r1
    1a2e:	8d e2       	ldi	r24, 0x2D	; 45
    1a30:	01 c0       	rjmp	.+2      	; 0x1a34 <vfprintf+0x3c4>
    1a32:	8b e2       	ldi	r24, 0x2B	; 43
    1a34:	b7 01       	movw	r22, r14
    1a36:	90 e0       	ldi	r25, 0x00	; 0
    1a38:	df d2       	rcall	.+1470   	; 0x1ff8 <fputc>
    1a3a:	80 e3       	ldi	r24, 0x30	; 48
    1a3c:	2a e0       	ldi	r18, 0x0A	; 10
    1a3e:	c2 16       	cp	r12, r18
    1a40:	d1 04       	cpc	r13, r1
    1a42:	2c f0       	brlt	.+10     	; 0x1a4e <vfprintf+0x3de>
    1a44:	8f 5f       	subi	r24, 0xFF	; 255
    1a46:	fa e0       	ldi	r31, 0x0A	; 10
    1a48:	cf 1a       	sub	r12, r31
    1a4a:	d1 08       	sbc	r13, r1
    1a4c:	f7 cf       	rjmp	.-18     	; 0x1a3c <vfprintf+0x3cc>
    1a4e:	b7 01       	movw	r22, r14
    1a50:	90 e0       	ldi	r25, 0x00	; 0
    1a52:	d2 d2       	rcall	.+1444   	; 0x1ff8 <fputc>
    1a54:	b7 01       	movw	r22, r14
    1a56:	c6 01       	movw	r24, r12
    1a58:	c0 96       	adiw	r24, 0x30	; 48
    1a5a:	ce d2       	rcall	.+1436   	; 0x1ff8 <fputc>
    1a5c:	49 c1       	rjmp	.+658    	; 0x1cf0 <vfprintf+0x680>
    1a5e:	83 36       	cpi	r24, 0x63	; 99
    1a60:	31 f0       	breq	.+12     	; 0x1a6e <vfprintf+0x3fe>
    1a62:	83 37       	cpi	r24, 0x73	; 115
    1a64:	79 f0       	breq	.+30     	; 0x1a84 <vfprintf+0x414>
    1a66:	83 35       	cpi	r24, 0x53	; 83
    1a68:	09 f0       	breq	.+2      	; 0x1a6c <vfprintf+0x3fc>
    1a6a:	52 c0       	rjmp	.+164    	; 0x1b10 <vfprintf+0x4a0>
    1a6c:	1f c0       	rjmp	.+62     	; 0x1aac <vfprintf+0x43c>
    1a6e:	56 01       	movw	r10, r12
    1a70:	32 e0       	ldi	r19, 0x02	; 2
    1a72:	a3 0e       	add	r10, r19
    1a74:	b1 1c       	adc	r11, r1
    1a76:	f6 01       	movw	r30, r12
    1a78:	80 81       	ld	r24, Z
    1a7a:	89 83       	std	Y+1, r24	; 0x01
    1a7c:	01 e0       	ldi	r16, 0x01	; 1
    1a7e:	10 e0       	ldi	r17, 0x00	; 0
    1a80:	63 01       	movw	r12, r6
    1a82:	11 c0       	rjmp	.+34     	; 0x1aa6 <vfprintf+0x436>
    1a84:	56 01       	movw	r10, r12
    1a86:	f2 e0       	ldi	r31, 0x02	; 2
    1a88:	af 0e       	add	r10, r31
    1a8a:	b1 1c       	adc	r11, r1
    1a8c:	f6 01       	movw	r30, r12
    1a8e:	c0 80       	ld	r12, Z
    1a90:	d1 80       	ldd	r13, Z+1	; 0x01
    1a92:	96 fe       	sbrs	r9, 6
    1a94:	03 c0       	rjmp	.+6      	; 0x1a9c <vfprintf+0x42c>
    1a96:	61 2f       	mov	r22, r17
    1a98:	70 e0       	ldi	r23, 0x00	; 0
    1a9a:	02 c0       	rjmp	.+4      	; 0x1aa0 <vfprintf+0x430>
    1a9c:	6f ef       	ldi	r22, 0xFF	; 255
    1a9e:	7f ef       	ldi	r23, 0xFF	; 255
    1aa0:	c6 01       	movw	r24, r12
    1aa2:	7c d2       	rcall	.+1272   	; 0x1f9c <strnlen>
    1aa4:	8c 01       	movw	r16, r24
    1aa6:	f9 2d       	mov	r31, r9
    1aa8:	ff 77       	andi	r31, 0x7F	; 127
    1aaa:	13 c0       	rjmp	.+38     	; 0x1ad2 <vfprintf+0x462>
    1aac:	56 01       	movw	r10, r12
    1aae:	22 e0       	ldi	r18, 0x02	; 2
    1ab0:	a2 0e       	add	r10, r18
    1ab2:	b1 1c       	adc	r11, r1
    1ab4:	f6 01       	movw	r30, r12
    1ab6:	c0 80       	ld	r12, Z
    1ab8:	d1 80       	ldd	r13, Z+1	; 0x01
    1aba:	96 fe       	sbrs	r9, 6
    1abc:	03 c0       	rjmp	.+6      	; 0x1ac4 <vfprintf+0x454>
    1abe:	61 2f       	mov	r22, r17
    1ac0:	70 e0       	ldi	r23, 0x00	; 0
    1ac2:	02 c0       	rjmp	.+4      	; 0x1ac8 <vfprintf+0x458>
    1ac4:	6f ef       	ldi	r22, 0xFF	; 255
    1ac6:	7f ef       	ldi	r23, 0xFF	; 255
    1ac8:	c6 01       	movw	r24, r12
    1aca:	5d d2       	rcall	.+1210   	; 0x1f86 <strnlen_P>
    1acc:	8c 01       	movw	r16, r24
    1ace:	f9 2d       	mov	r31, r9
    1ad0:	f0 68       	ori	r31, 0x80	; 128
    1ad2:	9f 2e       	mov	r9, r31
    1ad4:	f3 fd       	sbrc	r31, 3
    1ad6:	18 c0       	rjmp	.+48     	; 0x1b08 <vfprintf+0x498>
    1ad8:	85 2d       	mov	r24, r5
    1ada:	90 e0       	ldi	r25, 0x00	; 0
    1adc:	08 17       	cp	r16, r24
    1ade:	19 07       	cpc	r17, r25
    1ae0:	98 f4       	brcc	.+38     	; 0x1b08 <vfprintf+0x498>
    1ae2:	b7 01       	movw	r22, r14
    1ae4:	80 e2       	ldi	r24, 0x20	; 32
    1ae6:	90 e0       	ldi	r25, 0x00	; 0
    1ae8:	87 d2       	rcall	.+1294   	; 0x1ff8 <fputc>
    1aea:	5a 94       	dec	r5
    1aec:	f5 cf       	rjmp	.-22     	; 0x1ad8 <vfprintf+0x468>
    1aee:	f6 01       	movw	r30, r12
    1af0:	97 fc       	sbrc	r9, 7
    1af2:	85 91       	lpm	r24, Z+
    1af4:	97 fe       	sbrs	r9, 7
    1af6:	81 91       	ld	r24, Z+
    1af8:	6f 01       	movw	r12, r30
    1afa:	b7 01       	movw	r22, r14
    1afc:	90 e0       	ldi	r25, 0x00	; 0
    1afe:	7c d2       	rcall	.+1272   	; 0x1ff8 <fputc>
    1b00:	51 10       	cpse	r5, r1
    1b02:	5a 94       	dec	r5
    1b04:	01 50       	subi	r16, 0x01	; 1
    1b06:	11 09       	sbc	r17, r1
    1b08:	01 15       	cp	r16, r1
    1b0a:	11 05       	cpc	r17, r1
    1b0c:	81 f7       	brne	.-32     	; 0x1aee <vfprintf+0x47e>
    1b0e:	f0 c0       	rjmp	.+480    	; 0x1cf0 <vfprintf+0x680>
    1b10:	84 36       	cpi	r24, 0x64	; 100
    1b12:	11 f0       	breq	.+4      	; 0x1b18 <vfprintf+0x4a8>
    1b14:	89 36       	cpi	r24, 0x69	; 105
    1b16:	59 f5       	brne	.+86     	; 0x1b6e <vfprintf+0x4fe>
    1b18:	56 01       	movw	r10, r12
    1b1a:	97 fe       	sbrs	r9, 7
    1b1c:	09 c0       	rjmp	.+18     	; 0x1b30 <vfprintf+0x4c0>
    1b1e:	24 e0       	ldi	r18, 0x04	; 4
    1b20:	a2 0e       	add	r10, r18
    1b22:	b1 1c       	adc	r11, r1
    1b24:	f6 01       	movw	r30, r12
    1b26:	60 81       	ld	r22, Z
    1b28:	71 81       	ldd	r23, Z+1	; 0x01
    1b2a:	82 81       	ldd	r24, Z+2	; 0x02
    1b2c:	93 81       	ldd	r25, Z+3	; 0x03
    1b2e:	0a c0       	rjmp	.+20     	; 0x1b44 <vfprintf+0x4d4>
    1b30:	f2 e0       	ldi	r31, 0x02	; 2
    1b32:	af 0e       	add	r10, r31
    1b34:	b1 1c       	adc	r11, r1
    1b36:	f6 01       	movw	r30, r12
    1b38:	60 81       	ld	r22, Z
    1b3a:	71 81       	ldd	r23, Z+1	; 0x01
    1b3c:	07 2e       	mov	r0, r23
    1b3e:	00 0c       	add	r0, r0
    1b40:	88 0b       	sbc	r24, r24
    1b42:	99 0b       	sbc	r25, r25
    1b44:	f9 2d       	mov	r31, r9
    1b46:	ff 76       	andi	r31, 0x6F	; 111
    1b48:	9f 2e       	mov	r9, r31
    1b4a:	97 ff       	sbrs	r25, 7
    1b4c:	09 c0       	rjmp	.+18     	; 0x1b60 <vfprintf+0x4f0>
    1b4e:	90 95       	com	r25
    1b50:	80 95       	com	r24
    1b52:	70 95       	com	r23
    1b54:	61 95       	neg	r22
    1b56:	7f 4f       	sbci	r23, 0xFF	; 255
    1b58:	8f 4f       	sbci	r24, 0xFF	; 255
    1b5a:	9f 4f       	sbci	r25, 0xFF	; 255
    1b5c:	f0 68       	ori	r31, 0x80	; 128
    1b5e:	9f 2e       	mov	r9, r31
    1b60:	2a e0       	ldi	r18, 0x0A	; 10
    1b62:	30 e0       	ldi	r19, 0x00	; 0
    1b64:	a3 01       	movw	r20, r6
    1b66:	b2 d2       	rcall	.+1380   	; 0x20cc <__ultoa_invert>
    1b68:	c8 2e       	mov	r12, r24
    1b6a:	c6 18       	sub	r12, r6
    1b6c:	3e c0       	rjmp	.+124    	; 0x1bea <vfprintf+0x57a>
    1b6e:	09 2d       	mov	r16, r9
    1b70:	85 37       	cpi	r24, 0x75	; 117
    1b72:	21 f4       	brne	.+8      	; 0x1b7c <vfprintf+0x50c>
    1b74:	0f 7e       	andi	r16, 0xEF	; 239
    1b76:	2a e0       	ldi	r18, 0x0A	; 10
    1b78:	30 e0       	ldi	r19, 0x00	; 0
    1b7a:	1d c0       	rjmp	.+58     	; 0x1bb6 <vfprintf+0x546>
    1b7c:	09 7f       	andi	r16, 0xF9	; 249
    1b7e:	8f 36       	cpi	r24, 0x6F	; 111
    1b80:	91 f0       	breq	.+36     	; 0x1ba6 <vfprintf+0x536>
    1b82:	18 f4       	brcc	.+6      	; 0x1b8a <vfprintf+0x51a>
    1b84:	88 35       	cpi	r24, 0x58	; 88
    1b86:	59 f0       	breq	.+22     	; 0x1b9e <vfprintf+0x52e>
    1b88:	bc c0       	rjmp	.+376    	; 0x1d02 <vfprintf+0x692>
    1b8a:	80 37       	cpi	r24, 0x70	; 112
    1b8c:	19 f0       	breq	.+6      	; 0x1b94 <vfprintf+0x524>
    1b8e:	88 37       	cpi	r24, 0x78	; 120
    1b90:	11 f0       	breq	.+4      	; 0x1b96 <vfprintf+0x526>
    1b92:	b7 c0       	rjmp	.+366    	; 0x1d02 <vfprintf+0x692>
    1b94:	00 61       	ori	r16, 0x10	; 16
    1b96:	04 ff       	sbrs	r16, 4
    1b98:	09 c0       	rjmp	.+18     	; 0x1bac <vfprintf+0x53c>
    1b9a:	04 60       	ori	r16, 0x04	; 4
    1b9c:	07 c0       	rjmp	.+14     	; 0x1bac <vfprintf+0x53c>
    1b9e:	94 fe       	sbrs	r9, 4
    1ba0:	08 c0       	rjmp	.+16     	; 0x1bb2 <vfprintf+0x542>
    1ba2:	06 60       	ori	r16, 0x06	; 6
    1ba4:	06 c0       	rjmp	.+12     	; 0x1bb2 <vfprintf+0x542>
    1ba6:	28 e0       	ldi	r18, 0x08	; 8
    1ba8:	30 e0       	ldi	r19, 0x00	; 0
    1baa:	05 c0       	rjmp	.+10     	; 0x1bb6 <vfprintf+0x546>
    1bac:	20 e1       	ldi	r18, 0x10	; 16
    1bae:	30 e0       	ldi	r19, 0x00	; 0
    1bb0:	02 c0       	rjmp	.+4      	; 0x1bb6 <vfprintf+0x546>
    1bb2:	20 e1       	ldi	r18, 0x10	; 16
    1bb4:	32 e0       	ldi	r19, 0x02	; 2
    1bb6:	56 01       	movw	r10, r12
    1bb8:	07 ff       	sbrs	r16, 7
    1bba:	09 c0       	rjmp	.+18     	; 0x1bce <vfprintf+0x55e>
    1bbc:	84 e0       	ldi	r24, 0x04	; 4
    1bbe:	a8 0e       	add	r10, r24
    1bc0:	b1 1c       	adc	r11, r1
    1bc2:	f6 01       	movw	r30, r12
    1bc4:	60 81       	ld	r22, Z
    1bc6:	71 81       	ldd	r23, Z+1	; 0x01
    1bc8:	82 81       	ldd	r24, Z+2	; 0x02
    1bca:	93 81       	ldd	r25, Z+3	; 0x03
    1bcc:	08 c0       	rjmp	.+16     	; 0x1bde <vfprintf+0x56e>
    1bce:	f2 e0       	ldi	r31, 0x02	; 2
    1bd0:	af 0e       	add	r10, r31
    1bd2:	b1 1c       	adc	r11, r1
    1bd4:	f6 01       	movw	r30, r12
    1bd6:	60 81       	ld	r22, Z
    1bd8:	71 81       	ldd	r23, Z+1	; 0x01
    1bda:	80 e0       	ldi	r24, 0x00	; 0
    1bdc:	90 e0       	ldi	r25, 0x00	; 0
    1bde:	a3 01       	movw	r20, r6
    1be0:	75 d2       	rcall	.+1258   	; 0x20cc <__ultoa_invert>
    1be2:	c8 2e       	mov	r12, r24
    1be4:	c6 18       	sub	r12, r6
    1be6:	0f 77       	andi	r16, 0x7F	; 127
    1be8:	90 2e       	mov	r9, r16
    1bea:	96 fe       	sbrs	r9, 6
    1bec:	0b c0       	rjmp	.+22     	; 0x1c04 <vfprintf+0x594>
    1bee:	09 2d       	mov	r16, r9
    1bf0:	0e 7f       	andi	r16, 0xFE	; 254
    1bf2:	c1 16       	cp	r12, r17
    1bf4:	50 f4       	brcc	.+20     	; 0x1c0a <vfprintf+0x59a>
    1bf6:	94 fe       	sbrs	r9, 4
    1bf8:	0a c0       	rjmp	.+20     	; 0x1c0e <vfprintf+0x59e>
    1bfa:	92 fc       	sbrc	r9, 2
    1bfc:	08 c0       	rjmp	.+16     	; 0x1c0e <vfprintf+0x59e>
    1bfe:	09 2d       	mov	r16, r9
    1c00:	0e 7e       	andi	r16, 0xEE	; 238
    1c02:	05 c0       	rjmp	.+10     	; 0x1c0e <vfprintf+0x59e>
    1c04:	dc 2c       	mov	r13, r12
    1c06:	09 2d       	mov	r16, r9
    1c08:	03 c0       	rjmp	.+6      	; 0x1c10 <vfprintf+0x5a0>
    1c0a:	dc 2c       	mov	r13, r12
    1c0c:	01 c0       	rjmp	.+2      	; 0x1c10 <vfprintf+0x5a0>
    1c0e:	d1 2e       	mov	r13, r17
    1c10:	04 ff       	sbrs	r16, 4
    1c12:	0d c0       	rjmp	.+26     	; 0x1c2e <vfprintf+0x5be>
    1c14:	fe 01       	movw	r30, r28
    1c16:	ec 0d       	add	r30, r12
    1c18:	f1 1d       	adc	r31, r1
    1c1a:	80 81       	ld	r24, Z
    1c1c:	80 33       	cpi	r24, 0x30	; 48
    1c1e:	11 f4       	brne	.+4      	; 0x1c24 <vfprintf+0x5b4>
    1c20:	09 7e       	andi	r16, 0xE9	; 233
    1c22:	09 c0       	rjmp	.+18     	; 0x1c36 <vfprintf+0x5c6>
    1c24:	02 ff       	sbrs	r16, 2
    1c26:	06 c0       	rjmp	.+12     	; 0x1c34 <vfprintf+0x5c4>
    1c28:	d3 94       	inc	r13
    1c2a:	d3 94       	inc	r13
    1c2c:	04 c0       	rjmp	.+8      	; 0x1c36 <vfprintf+0x5c6>
    1c2e:	80 2f       	mov	r24, r16
    1c30:	86 78       	andi	r24, 0x86	; 134
    1c32:	09 f0       	breq	.+2      	; 0x1c36 <vfprintf+0x5c6>
    1c34:	d3 94       	inc	r13
    1c36:	03 fd       	sbrc	r16, 3
    1c38:	10 c0       	rjmp	.+32     	; 0x1c5a <vfprintf+0x5ea>
    1c3a:	00 ff       	sbrs	r16, 0
    1c3c:	06 c0       	rjmp	.+12     	; 0x1c4a <vfprintf+0x5da>
    1c3e:	1c 2d       	mov	r17, r12
    1c40:	d5 14       	cp	r13, r5
    1c42:	78 f4       	brcc	.+30     	; 0x1c62 <vfprintf+0x5f2>
    1c44:	15 0d       	add	r17, r5
    1c46:	1d 19       	sub	r17, r13
    1c48:	0c c0       	rjmp	.+24     	; 0x1c62 <vfprintf+0x5f2>
    1c4a:	d5 14       	cp	r13, r5
    1c4c:	50 f4       	brcc	.+20     	; 0x1c62 <vfprintf+0x5f2>
    1c4e:	b7 01       	movw	r22, r14
    1c50:	80 e2       	ldi	r24, 0x20	; 32
    1c52:	90 e0       	ldi	r25, 0x00	; 0
    1c54:	d1 d1       	rcall	.+930    	; 0x1ff8 <fputc>
    1c56:	d3 94       	inc	r13
    1c58:	f8 cf       	rjmp	.-16     	; 0x1c4a <vfprintf+0x5da>
    1c5a:	d5 14       	cp	r13, r5
    1c5c:	10 f4       	brcc	.+4      	; 0x1c62 <vfprintf+0x5f2>
    1c5e:	5d 18       	sub	r5, r13
    1c60:	01 c0       	rjmp	.+2      	; 0x1c64 <vfprintf+0x5f4>
    1c62:	51 2c       	mov	r5, r1
    1c64:	04 ff       	sbrs	r16, 4
    1c66:	0f c0       	rjmp	.+30     	; 0x1c86 <vfprintf+0x616>
    1c68:	b7 01       	movw	r22, r14
    1c6a:	80 e3       	ldi	r24, 0x30	; 48
    1c6c:	90 e0       	ldi	r25, 0x00	; 0
    1c6e:	c4 d1       	rcall	.+904    	; 0x1ff8 <fputc>
    1c70:	02 ff       	sbrs	r16, 2
    1c72:	16 c0       	rjmp	.+44     	; 0x1ca0 <vfprintf+0x630>
    1c74:	01 fd       	sbrc	r16, 1
    1c76:	03 c0       	rjmp	.+6      	; 0x1c7e <vfprintf+0x60e>
    1c78:	88 e7       	ldi	r24, 0x78	; 120
    1c7a:	90 e0       	ldi	r25, 0x00	; 0
    1c7c:	02 c0       	rjmp	.+4      	; 0x1c82 <vfprintf+0x612>
    1c7e:	88 e5       	ldi	r24, 0x58	; 88
    1c80:	90 e0       	ldi	r25, 0x00	; 0
    1c82:	b7 01       	movw	r22, r14
    1c84:	0c c0       	rjmp	.+24     	; 0x1c9e <vfprintf+0x62e>
    1c86:	80 2f       	mov	r24, r16
    1c88:	86 78       	andi	r24, 0x86	; 134
    1c8a:	51 f0       	breq	.+20     	; 0x1ca0 <vfprintf+0x630>
    1c8c:	01 ff       	sbrs	r16, 1
    1c8e:	02 c0       	rjmp	.+4      	; 0x1c94 <vfprintf+0x624>
    1c90:	8b e2       	ldi	r24, 0x2B	; 43
    1c92:	01 c0       	rjmp	.+2      	; 0x1c96 <vfprintf+0x626>
    1c94:	80 e2       	ldi	r24, 0x20	; 32
    1c96:	07 fd       	sbrc	r16, 7
    1c98:	8d e2       	ldi	r24, 0x2D	; 45
    1c9a:	b7 01       	movw	r22, r14
    1c9c:	90 e0       	ldi	r25, 0x00	; 0
    1c9e:	ac d1       	rcall	.+856    	; 0x1ff8 <fputc>
    1ca0:	c1 16       	cp	r12, r17
    1ca2:	30 f4       	brcc	.+12     	; 0x1cb0 <vfprintf+0x640>
    1ca4:	b7 01       	movw	r22, r14
    1ca6:	80 e3       	ldi	r24, 0x30	; 48
    1ca8:	90 e0       	ldi	r25, 0x00	; 0
    1caa:	a6 d1       	rcall	.+844    	; 0x1ff8 <fputc>
    1cac:	11 50       	subi	r17, 0x01	; 1
    1cae:	f8 cf       	rjmp	.-16     	; 0x1ca0 <vfprintf+0x630>
    1cb0:	ca 94       	dec	r12
    1cb2:	f3 01       	movw	r30, r6
    1cb4:	ec 0d       	add	r30, r12
    1cb6:	f1 1d       	adc	r31, r1
    1cb8:	80 81       	ld	r24, Z
    1cba:	b7 01       	movw	r22, r14
    1cbc:	90 e0       	ldi	r25, 0x00	; 0
    1cbe:	9c d1       	rcall	.+824    	; 0x1ff8 <fputc>
    1cc0:	c1 10       	cpse	r12, r1
    1cc2:	f6 cf       	rjmp	.-20     	; 0x1cb0 <vfprintf+0x640>
    1cc4:	15 c0       	rjmp	.+42     	; 0x1cf0 <vfprintf+0x680>
    1cc6:	f4 e0       	ldi	r31, 0x04	; 4
    1cc8:	f5 15       	cp	r31, r5
    1cca:	50 f5       	brcc	.+84     	; 0x1d20 <vfprintf+0x6b0>
    1ccc:	84 e0       	ldi	r24, 0x04	; 4
    1cce:	58 1a       	sub	r5, r24
    1cd0:	93 fe       	sbrs	r9, 3
    1cd2:	1e c0       	rjmp	.+60     	; 0x1d10 <vfprintf+0x6a0>
    1cd4:	01 11       	cpse	r16, r1
    1cd6:	25 c0       	rjmp	.+74     	; 0x1d22 <vfprintf+0x6b2>
    1cd8:	2c 85       	ldd	r18, Y+12	; 0x0c
    1cda:	23 ff       	sbrs	r18, 3
    1cdc:	27 c0       	rjmp	.+78     	; 0x1d2c <vfprintf+0x6bc>
    1cde:	04 e7       	ldi	r16, 0x74	; 116
    1ce0:	11 e0       	ldi	r17, 0x01	; 1
    1ce2:	39 2d       	mov	r19, r9
    1ce4:	30 71       	andi	r19, 0x10	; 16
    1ce6:	93 2e       	mov	r9, r19
    1ce8:	f8 01       	movw	r30, r16
    1cea:	84 91       	lpm	r24, Z
    1cec:	81 11       	cpse	r24, r1
    1cee:	21 c0       	rjmp	.+66     	; 0x1d32 <vfprintf+0x6c2>
    1cf0:	55 20       	and	r5, r5
    1cf2:	09 f4       	brne	.+2      	; 0x1cf6 <vfprintf+0x686>
    1cf4:	fc cc       	rjmp	.-1544   	; 0x16ee <vfprintf+0x7e>
    1cf6:	b7 01       	movw	r22, r14
    1cf8:	80 e2       	ldi	r24, 0x20	; 32
    1cfa:	90 e0       	ldi	r25, 0x00	; 0
    1cfc:	7d d1       	rcall	.+762    	; 0x1ff8 <fputc>
    1cfe:	5a 94       	dec	r5
    1d00:	f7 cf       	rjmp	.-18     	; 0x1cf0 <vfprintf+0x680>
    1d02:	f7 01       	movw	r30, r14
    1d04:	86 81       	ldd	r24, Z+6	; 0x06
    1d06:	97 81       	ldd	r25, Z+7	; 0x07
    1d08:	23 c0       	rjmp	.+70     	; 0x1d50 <vfprintf+0x6e0>
    1d0a:	8f ef       	ldi	r24, 0xFF	; 255
    1d0c:	9f ef       	ldi	r25, 0xFF	; 255
    1d0e:	20 c0       	rjmp	.+64     	; 0x1d50 <vfprintf+0x6e0>
    1d10:	b7 01       	movw	r22, r14
    1d12:	80 e2       	ldi	r24, 0x20	; 32
    1d14:	90 e0       	ldi	r25, 0x00	; 0
    1d16:	70 d1       	rcall	.+736    	; 0x1ff8 <fputc>
    1d18:	5a 94       	dec	r5
    1d1a:	51 10       	cpse	r5, r1
    1d1c:	f9 cf       	rjmp	.-14     	; 0x1d10 <vfprintf+0x6a0>
    1d1e:	da cf       	rjmp	.-76     	; 0x1cd4 <vfprintf+0x664>
    1d20:	51 2c       	mov	r5, r1
    1d22:	b7 01       	movw	r22, r14
    1d24:	80 2f       	mov	r24, r16
    1d26:	90 e0       	ldi	r25, 0x00	; 0
    1d28:	67 d1       	rcall	.+718    	; 0x1ff8 <fputc>
    1d2a:	d6 cf       	rjmp	.-84     	; 0x1cd8 <vfprintf+0x668>
    1d2c:	08 e7       	ldi	r16, 0x78	; 120
    1d2e:	11 e0       	ldi	r17, 0x01	; 1
    1d30:	d8 cf       	rjmp	.-80     	; 0x1ce2 <vfprintf+0x672>
    1d32:	91 10       	cpse	r9, r1
    1d34:	80 52       	subi	r24, 0x20	; 32
    1d36:	b7 01       	movw	r22, r14
    1d38:	90 e0       	ldi	r25, 0x00	; 0
    1d3a:	5e d1       	rcall	.+700    	; 0x1ff8 <fputc>
    1d3c:	0f 5f       	subi	r16, 0xFF	; 255
    1d3e:	1f 4f       	sbci	r17, 0xFF	; 255
    1d40:	d3 cf       	rjmp	.-90     	; 0x1ce8 <vfprintf+0x678>
    1d42:	23 e0       	ldi	r18, 0x03	; 3
    1d44:	25 15       	cp	r18, r5
    1d46:	10 f4       	brcc	.+4      	; 0x1d4c <vfprintf+0x6dc>
    1d48:	83 e0       	ldi	r24, 0x03	; 3
    1d4a:	c1 cf       	rjmp	.-126    	; 0x1cce <vfprintf+0x65e>
    1d4c:	51 2c       	mov	r5, r1
    1d4e:	c4 cf       	rjmp	.-120    	; 0x1cd8 <vfprintf+0x668>
    1d50:	60 96       	adiw	r28, 0x10	; 16
    1d52:	0f b6       	in	r0, 0x3f	; 63
    1d54:	f8 94       	cli
    1d56:	de bf       	out	0x3e, r29	; 62
    1d58:	0f be       	out	0x3f, r0	; 63
    1d5a:	cd bf       	out	0x3d, r28	; 61
    1d5c:	df 91       	pop	r29
    1d5e:	cf 91       	pop	r28
    1d60:	1f 91       	pop	r17
    1d62:	0f 91       	pop	r16
    1d64:	ff 90       	pop	r15
    1d66:	ef 90       	pop	r14
    1d68:	df 90       	pop	r13
    1d6a:	cf 90       	pop	r12
    1d6c:	bf 90       	pop	r11
    1d6e:	af 90       	pop	r10
    1d70:	9f 90       	pop	r9
    1d72:	8f 90       	pop	r8
    1d74:	7f 90       	pop	r7
    1d76:	6f 90       	pop	r6
    1d78:	5f 90       	pop	r5
    1d7a:	4f 90       	pop	r4
    1d7c:	3f 90       	pop	r3
    1d7e:	2f 90       	pop	r2
    1d80:	08 95       	ret

00001d82 <__udivmodsi4>:
    1d82:	a1 e2       	ldi	r26, 0x21	; 33
    1d84:	1a 2e       	mov	r1, r26
    1d86:	aa 1b       	sub	r26, r26
    1d88:	bb 1b       	sub	r27, r27
    1d8a:	fd 01       	movw	r30, r26
    1d8c:	0d c0       	rjmp	.+26     	; 0x1da8 <__udivmodsi4_ep>

00001d8e <__udivmodsi4_loop>:
    1d8e:	aa 1f       	adc	r26, r26
    1d90:	bb 1f       	adc	r27, r27
    1d92:	ee 1f       	adc	r30, r30
    1d94:	ff 1f       	adc	r31, r31
    1d96:	a2 17       	cp	r26, r18
    1d98:	b3 07       	cpc	r27, r19
    1d9a:	e4 07       	cpc	r30, r20
    1d9c:	f5 07       	cpc	r31, r21
    1d9e:	20 f0       	brcs	.+8      	; 0x1da8 <__udivmodsi4_ep>
    1da0:	a2 1b       	sub	r26, r18
    1da2:	b3 0b       	sbc	r27, r19
    1da4:	e4 0b       	sbc	r30, r20
    1da6:	f5 0b       	sbc	r31, r21

00001da8 <__udivmodsi4_ep>:
    1da8:	66 1f       	adc	r22, r22
    1daa:	77 1f       	adc	r23, r23
    1dac:	88 1f       	adc	r24, r24
    1dae:	99 1f       	adc	r25, r25
    1db0:	1a 94       	dec	r1
    1db2:	69 f7       	brne	.-38     	; 0x1d8e <__udivmodsi4_loop>
    1db4:	60 95       	com	r22
    1db6:	70 95       	com	r23
    1db8:	80 95       	com	r24
    1dba:	90 95       	com	r25
    1dbc:	9b 01       	movw	r18, r22
    1dbe:	ac 01       	movw	r20, r24
    1dc0:	bd 01       	movw	r22, r26
    1dc2:	cf 01       	movw	r24, r30
    1dc4:	08 95       	ret

00001dc6 <__tablejump2__>:
    1dc6:	ee 0f       	add	r30, r30
    1dc8:	ff 1f       	adc	r31, r31
    1dca:	88 1f       	adc	r24, r24
    1dcc:	8b bf       	out	0x3b, r24	; 59
    1dce:	07 90       	elpm	r0, Z+
    1dd0:	f6 91       	elpm	r31, Z
    1dd2:	e0 2d       	mov	r30, r0
    1dd4:	19 94       	eijmp

00001dd6 <__ftoa_engine>:
    1dd6:	28 30       	cpi	r18, 0x08	; 8
    1dd8:	08 f0       	brcs	.+2      	; 0x1ddc <__ftoa_engine+0x6>
    1dda:	27 e0       	ldi	r18, 0x07	; 7
    1ddc:	33 27       	eor	r19, r19
    1dde:	da 01       	movw	r26, r20
    1de0:	99 0f       	add	r25, r25
    1de2:	31 1d       	adc	r19, r1
    1de4:	87 fd       	sbrc	r24, 7
    1de6:	91 60       	ori	r25, 0x01	; 1
    1de8:	00 96       	adiw	r24, 0x00	; 0
    1dea:	61 05       	cpc	r22, r1
    1dec:	71 05       	cpc	r23, r1
    1dee:	39 f4       	brne	.+14     	; 0x1dfe <__ftoa_engine+0x28>
    1df0:	32 60       	ori	r19, 0x02	; 2
    1df2:	2e 5f       	subi	r18, 0xFE	; 254
    1df4:	3d 93       	st	X+, r19
    1df6:	30 e3       	ldi	r19, 0x30	; 48
    1df8:	2a 95       	dec	r18
    1dfa:	e1 f7       	brne	.-8      	; 0x1df4 <__ftoa_engine+0x1e>
    1dfc:	08 95       	ret
    1dfe:	9f 3f       	cpi	r25, 0xFF	; 255
    1e00:	30 f0       	brcs	.+12     	; 0x1e0e <__ftoa_engine+0x38>
    1e02:	80 38       	cpi	r24, 0x80	; 128
    1e04:	71 05       	cpc	r23, r1
    1e06:	61 05       	cpc	r22, r1
    1e08:	09 f0       	breq	.+2      	; 0x1e0c <__ftoa_engine+0x36>
    1e0a:	3c 5f       	subi	r19, 0xFC	; 252
    1e0c:	3c 5f       	subi	r19, 0xFC	; 252
    1e0e:	3d 93       	st	X+, r19
    1e10:	91 30       	cpi	r25, 0x01	; 1
    1e12:	08 f0       	brcs	.+2      	; 0x1e16 <__ftoa_engine+0x40>
    1e14:	80 68       	ori	r24, 0x80	; 128
    1e16:	91 1d       	adc	r25, r1
    1e18:	df 93       	push	r29
    1e1a:	cf 93       	push	r28
    1e1c:	1f 93       	push	r17
    1e1e:	0f 93       	push	r16
    1e20:	ff 92       	push	r15
    1e22:	ef 92       	push	r14
    1e24:	19 2f       	mov	r17, r25
    1e26:	98 7f       	andi	r25, 0xF8	; 248
    1e28:	96 95       	lsr	r25
    1e2a:	e9 2f       	mov	r30, r25
    1e2c:	96 95       	lsr	r25
    1e2e:	96 95       	lsr	r25
    1e30:	e9 0f       	add	r30, r25
    1e32:	ff 27       	eor	r31, r31
    1e34:	ea 52       	subi	r30, 0x2A	; 42
    1e36:	fe 4f       	sbci	r31, 0xFE	; 254
    1e38:	99 27       	eor	r25, r25
    1e3a:	33 27       	eor	r19, r19
    1e3c:	ee 24       	eor	r14, r14
    1e3e:	ff 24       	eor	r15, r15
    1e40:	a7 01       	movw	r20, r14
    1e42:	e7 01       	movw	r28, r14
    1e44:	05 90       	lpm	r0, Z+
    1e46:	08 94       	sec
    1e48:	07 94       	ror	r0
    1e4a:	28 f4       	brcc	.+10     	; 0x1e56 <__ftoa_engine+0x80>
    1e4c:	36 0f       	add	r19, r22
    1e4e:	e7 1e       	adc	r14, r23
    1e50:	f8 1e       	adc	r15, r24
    1e52:	49 1f       	adc	r20, r25
    1e54:	51 1d       	adc	r21, r1
    1e56:	66 0f       	add	r22, r22
    1e58:	77 1f       	adc	r23, r23
    1e5a:	88 1f       	adc	r24, r24
    1e5c:	99 1f       	adc	r25, r25
    1e5e:	06 94       	lsr	r0
    1e60:	a1 f7       	brne	.-24     	; 0x1e4a <__ftoa_engine+0x74>
    1e62:	05 90       	lpm	r0, Z+
    1e64:	07 94       	ror	r0
    1e66:	28 f4       	brcc	.+10     	; 0x1e72 <__ftoa_engine+0x9c>
    1e68:	e7 0e       	add	r14, r23
    1e6a:	f8 1e       	adc	r15, r24
    1e6c:	49 1f       	adc	r20, r25
    1e6e:	56 1f       	adc	r21, r22
    1e70:	c1 1d       	adc	r28, r1
    1e72:	77 0f       	add	r23, r23
    1e74:	88 1f       	adc	r24, r24
    1e76:	99 1f       	adc	r25, r25
    1e78:	66 1f       	adc	r22, r22
    1e7a:	06 94       	lsr	r0
    1e7c:	a1 f7       	brne	.-24     	; 0x1e66 <__ftoa_engine+0x90>
    1e7e:	05 90       	lpm	r0, Z+
    1e80:	07 94       	ror	r0
    1e82:	28 f4       	brcc	.+10     	; 0x1e8e <__ftoa_engine+0xb8>
    1e84:	f8 0e       	add	r15, r24
    1e86:	49 1f       	adc	r20, r25
    1e88:	56 1f       	adc	r21, r22
    1e8a:	c7 1f       	adc	r28, r23
    1e8c:	d1 1d       	adc	r29, r1
    1e8e:	88 0f       	add	r24, r24
    1e90:	99 1f       	adc	r25, r25
    1e92:	66 1f       	adc	r22, r22
    1e94:	77 1f       	adc	r23, r23
    1e96:	06 94       	lsr	r0
    1e98:	a1 f7       	brne	.-24     	; 0x1e82 <__ftoa_engine+0xac>
    1e9a:	05 90       	lpm	r0, Z+
    1e9c:	07 94       	ror	r0
    1e9e:	20 f4       	brcc	.+8      	; 0x1ea8 <__ftoa_engine+0xd2>
    1ea0:	49 0f       	add	r20, r25
    1ea2:	56 1f       	adc	r21, r22
    1ea4:	c7 1f       	adc	r28, r23
    1ea6:	d8 1f       	adc	r29, r24
    1ea8:	99 0f       	add	r25, r25
    1eaa:	66 1f       	adc	r22, r22
    1eac:	77 1f       	adc	r23, r23
    1eae:	88 1f       	adc	r24, r24
    1eb0:	06 94       	lsr	r0
    1eb2:	a9 f7       	brne	.-22     	; 0x1e9e <__ftoa_engine+0xc8>
    1eb4:	84 91       	lpm	r24, Z
    1eb6:	10 95       	com	r17
    1eb8:	17 70       	andi	r17, 0x07	; 7
    1eba:	41 f0       	breq	.+16     	; 0x1ecc <__ftoa_engine+0xf6>
    1ebc:	d6 95       	lsr	r29
    1ebe:	c7 95       	ror	r28
    1ec0:	57 95       	ror	r21
    1ec2:	47 95       	ror	r20
    1ec4:	f7 94       	ror	r15
    1ec6:	e7 94       	ror	r14
    1ec8:	1a 95       	dec	r17
    1eca:	c1 f7       	brne	.-16     	; 0x1ebc <__ftoa_engine+0xe6>
    1ecc:	ec e7       	ldi	r30, 0x7C	; 124
    1ece:	f1 e0       	ldi	r31, 0x01	; 1
    1ed0:	68 94       	set
    1ed2:	15 90       	lpm	r1, Z+
    1ed4:	15 91       	lpm	r17, Z+
    1ed6:	35 91       	lpm	r19, Z+
    1ed8:	65 91       	lpm	r22, Z+
    1eda:	95 91       	lpm	r25, Z+
    1edc:	05 90       	lpm	r0, Z+
    1ede:	7f e2       	ldi	r23, 0x2F	; 47
    1ee0:	73 95       	inc	r23
    1ee2:	e1 18       	sub	r14, r1
    1ee4:	f1 0a       	sbc	r15, r17
    1ee6:	43 0b       	sbc	r20, r19
    1ee8:	56 0b       	sbc	r21, r22
    1eea:	c9 0b       	sbc	r28, r25
    1eec:	d0 09       	sbc	r29, r0
    1eee:	c0 f7       	brcc	.-16     	; 0x1ee0 <__ftoa_engine+0x10a>
    1ef0:	e1 0c       	add	r14, r1
    1ef2:	f1 1e       	adc	r15, r17
    1ef4:	43 1f       	adc	r20, r19
    1ef6:	56 1f       	adc	r21, r22
    1ef8:	c9 1f       	adc	r28, r25
    1efa:	d0 1d       	adc	r29, r0
    1efc:	7e f4       	brtc	.+30     	; 0x1f1c <__ftoa_engine+0x146>
    1efe:	70 33       	cpi	r23, 0x30	; 48
    1f00:	11 f4       	brne	.+4      	; 0x1f06 <__ftoa_engine+0x130>
    1f02:	8a 95       	dec	r24
    1f04:	e6 cf       	rjmp	.-52     	; 0x1ed2 <__ftoa_engine+0xfc>
    1f06:	e8 94       	clt
    1f08:	01 50       	subi	r16, 0x01	; 1
    1f0a:	30 f0       	brcs	.+12     	; 0x1f18 <__ftoa_engine+0x142>
    1f0c:	08 0f       	add	r16, r24
    1f0e:	0a f4       	brpl	.+2      	; 0x1f12 <__ftoa_engine+0x13c>
    1f10:	00 27       	eor	r16, r16
    1f12:	02 17       	cp	r16, r18
    1f14:	08 f4       	brcc	.+2      	; 0x1f18 <__ftoa_engine+0x142>
    1f16:	20 2f       	mov	r18, r16
    1f18:	23 95       	inc	r18
    1f1a:	02 2f       	mov	r16, r18
    1f1c:	7a 33       	cpi	r23, 0x3A	; 58
    1f1e:	28 f0       	brcs	.+10     	; 0x1f2a <__ftoa_engine+0x154>
    1f20:	79 e3       	ldi	r23, 0x39	; 57
    1f22:	7d 93       	st	X+, r23
    1f24:	2a 95       	dec	r18
    1f26:	e9 f7       	brne	.-6      	; 0x1f22 <__ftoa_engine+0x14c>
    1f28:	10 c0       	rjmp	.+32     	; 0x1f4a <__ftoa_engine+0x174>
    1f2a:	7d 93       	st	X+, r23
    1f2c:	2a 95       	dec	r18
    1f2e:	89 f6       	brne	.-94     	; 0x1ed2 <__ftoa_engine+0xfc>
    1f30:	06 94       	lsr	r0
    1f32:	97 95       	ror	r25
    1f34:	67 95       	ror	r22
    1f36:	37 95       	ror	r19
    1f38:	17 95       	ror	r17
    1f3a:	17 94       	ror	r1
    1f3c:	e1 18       	sub	r14, r1
    1f3e:	f1 0a       	sbc	r15, r17
    1f40:	43 0b       	sbc	r20, r19
    1f42:	56 0b       	sbc	r21, r22
    1f44:	c9 0b       	sbc	r28, r25
    1f46:	d0 09       	sbc	r29, r0
    1f48:	98 f0       	brcs	.+38     	; 0x1f70 <__ftoa_engine+0x19a>
    1f4a:	23 95       	inc	r18
    1f4c:	7e 91       	ld	r23, -X
    1f4e:	73 95       	inc	r23
    1f50:	7a 33       	cpi	r23, 0x3A	; 58
    1f52:	08 f0       	brcs	.+2      	; 0x1f56 <__ftoa_engine+0x180>
    1f54:	70 e3       	ldi	r23, 0x30	; 48
    1f56:	7c 93       	st	X, r23
    1f58:	20 13       	cpse	r18, r16
    1f5a:	b8 f7       	brcc	.-18     	; 0x1f4a <__ftoa_engine+0x174>
    1f5c:	7e 91       	ld	r23, -X
    1f5e:	70 61       	ori	r23, 0x10	; 16
    1f60:	7d 93       	st	X+, r23
    1f62:	30 f0       	brcs	.+12     	; 0x1f70 <__ftoa_engine+0x19a>
    1f64:	83 95       	inc	r24
    1f66:	71 e3       	ldi	r23, 0x31	; 49
    1f68:	7d 93       	st	X+, r23
    1f6a:	70 e3       	ldi	r23, 0x30	; 48
    1f6c:	2a 95       	dec	r18
    1f6e:	e1 f7       	brne	.-8      	; 0x1f68 <__ftoa_engine+0x192>
    1f70:	11 24       	eor	r1, r1
    1f72:	ef 90       	pop	r14
    1f74:	ff 90       	pop	r15
    1f76:	0f 91       	pop	r16
    1f78:	1f 91       	pop	r17
    1f7a:	cf 91       	pop	r28
    1f7c:	df 91       	pop	r29
    1f7e:	99 27       	eor	r25, r25
    1f80:	87 fd       	sbrc	r24, 7
    1f82:	90 95       	com	r25
    1f84:	08 95       	ret

00001f86 <strnlen_P>:
    1f86:	fc 01       	movw	r30, r24
    1f88:	05 90       	lpm	r0, Z+
    1f8a:	61 50       	subi	r22, 0x01	; 1
    1f8c:	70 40       	sbci	r23, 0x00	; 0
    1f8e:	01 10       	cpse	r0, r1
    1f90:	d8 f7       	brcc	.-10     	; 0x1f88 <strnlen_P+0x2>
    1f92:	80 95       	com	r24
    1f94:	90 95       	com	r25
    1f96:	8e 0f       	add	r24, r30
    1f98:	9f 1f       	adc	r25, r31
    1f9a:	08 95       	ret

00001f9c <strnlen>:
    1f9c:	fc 01       	movw	r30, r24
    1f9e:	61 50       	subi	r22, 0x01	; 1
    1fa0:	70 40       	sbci	r23, 0x00	; 0
    1fa2:	01 90       	ld	r0, Z+
    1fa4:	01 10       	cpse	r0, r1
    1fa6:	d8 f7       	brcc	.-10     	; 0x1f9e <strnlen+0x2>
    1fa8:	80 95       	com	r24
    1faa:	90 95       	com	r25
    1fac:	8e 0f       	add	r24, r30
    1fae:	9f 1f       	adc	r25, r31
    1fb0:	08 95       	ret

00001fb2 <__itoa_ncheck>:
    1fb2:	bb 27       	eor	r27, r27
    1fb4:	4a 30       	cpi	r20, 0x0A	; 10
    1fb6:	31 f4       	brne	.+12     	; 0x1fc4 <__itoa_ncheck+0x12>
    1fb8:	99 23       	and	r25, r25
    1fba:	22 f4       	brpl	.+8      	; 0x1fc4 <__itoa_ncheck+0x12>
    1fbc:	bd e2       	ldi	r27, 0x2D	; 45
    1fbe:	90 95       	com	r25
    1fc0:	81 95       	neg	r24
    1fc2:	9f 4f       	sbci	r25, 0xFF	; 255
    1fc4:	01 c0       	rjmp	.+2      	; 0x1fc8 <__utoa_common>

00001fc6 <__utoa_ncheck>:
    1fc6:	bb 27       	eor	r27, r27

00001fc8 <__utoa_common>:
    1fc8:	fb 01       	movw	r30, r22
    1fca:	55 27       	eor	r21, r21
    1fcc:	aa 27       	eor	r26, r26
    1fce:	88 0f       	add	r24, r24
    1fd0:	99 1f       	adc	r25, r25
    1fd2:	aa 1f       	adc	r26, r26
    1fd4:	a4 17       	cp	r26, r20
    1fd6:	10 f0       	brcs	.+4      	; 0x1fdc <__utoa_common+0x14>
    1fd8:	a4 1b       	sub	r26, r20
    1fda:	83 95       	inc	r24
    1fdc:	50 51       	subi	r21, 0x10	; 16
    1fde:	b9 f7       	brne	.-18     	; 0x1fce <__utoa_common+0x6>
    1fe0:	a0 5d       	subi	r26, 0xD0	; 208
    1fe2:	aa 33       	cpi	r26, 0x3A	; 58
    1fe4:	08 f0       	brcs	.+2      	; 0x1fe8 <__utoa_common+0x20>
    1fe6:	a9 5d       	subi	r26, 0xD9	; 217
    1fe8:	a1 93       	st	Z+, r26
    1fea:	00 97       	sbiw	r24, 0x00	; 0
    1fec:	79 f7       	brne	.-34     	; 0x1fcc <__utoa_common+0x4>
    1fee:	b1 11       	cpse	r27, r1
    1ff0:	b1 93       	st	Z+, r27
    1ff2:	11 92       	st	Z+, r1
    1ff4:	cb 01       	movw	r24, r22
    1ff6:	c8 c0       	rjmp	.+400    	; 0x2188 <strrev>

00001ff8 <fputc>:
    1ff8:	0f 93       	push	r16
    1ffa:	1f 93       	push	r17
    1ffc:	cf 93       	push	r28
    1ffe:	df 93       	push	r29
    2000:	fb 01       	movw	r30, r22
    2002:	23 81       	ldd	r18, Z+3	; 0x03
    2004:	21 fd       	sbrc	r18, 1
    2006:	03 c0       	rjmp	.+6      	; 0x200e <fputc+0x16>
    2008:	8f ef       	ldi	r24, 0xFF	; 255
    200a:	9f ef       	ldi	r25, 0xFF	; 255
    200c:	2c c0       	rjmp	.+88     	; 0x2066 <fputc+0x6e>
    200e:	22 ff       	sbrs	r18, 2
    2010:	16 c0       	rjmp	.+44     	; 0x203e <fputc+0x46>
    2012:	46 81       	ldd	r20, Z+6	; 0x06
    2014:	57 81       	ldd	r21, Z+7	; 0x07
    2016:	24 81       	ldd	r18, Z+4	; 0x04
    2018:	35 81       	ldd	r19, Z+5	; 0x05
    201a:	42 17       	cp	r20, r18
    201c:	53 07       	cpc	r21, r19
    201e:	44 f4       	brge	.+16     	; 0x2030 <fputc+0x38>
    2020:	a0 81       	ld	r26, Z
    2022:	b1 81       	ldd	r27, Z+1	; 0x01
    2024:	9d 01       	movw	r18, r26
    2026:	2f 5f       	subi	r18, 0xFF	; 255
    2028:	3f 4f       	sbci	r19, 0xFF	; 255
    202a:	31 83       	std	Z+1, r19	; 0x01
    202c:	20 83       	st	Z, r18
    202e:	8c 93       	st	X, r24
    2030:	26 81       	ldd	r18, Z+6	; 0x06
    2032:	37 81       	ldd	r19, Z+7	; 0x07
    2034:	2f 5f       	subi	r18, 0xFF	; 255
    2036:	3f 4f       	sbci	r19, 0xFF	; 255
    2038:	37 83       	std	Z+7, r19	; 0x07
    203a:	26 83       	std	Z+6, r18	; 0x06
    203c:	14 c0       	rjmp	.+40     	; 0x2066 <fputc+0x6e>
    203e:	8b 01       	movw	r16, r22
    2040:	ec 01       	movw	r28, r24
    2042:	fb 01       	movw	r30, r22
    2044:	00 84       	ldd	r0, Z+8	; 0x08
    2046:	f1 85       	ldd	r31, Z+9	; 0x09
    2048:	e0 2d       	mov	r30, r0
    204a:	19 95       	eicall
    204c:	89 2b       	or	r24, r25
    204e:	e1 f6       	brne	.-72     	; 0x2008 <fputc+0x10>
    2050:	d8 01       	movw	r26, r16
    2052:	16 96       	adiw	r26, 0x06	; 6
    2054:	8d 91       	ld	r24, X+
    2056:	9c 91       	ld	r25, X
    2058:	17 97       	sbiw	r26, 0x07	; 7
    205a:	01 96       	adiw	r24, 0x01	; 1
    205c:	17 96       	adiw	r26, 0x07	; 7
    205e:	9c 93       	st	X, r25
    2060:	8e 93       	st	-X, r24
    2062:	16 97       	sbiw	r26, 0x06	; 6
    2064:	ce 01       	movw	r24, r28
    2066:	df 91       	pop	r29
    2068:	cf 91       	pop	r28
    206a:	1f 91       	pop	r17
    206c:	0f 91       	pop	r16
    206e:	08 95       	ret

00002070 <sprintf>:
    2070:	0f 93       	push	r16
    2072:	1f 93       	push	r17
    2074:	cf 93       	push	r28
    2076:	df 93       	push	r29
    2078:	cd b7       	in	r28, 0x3d	; 61
    207a:	de b7       	in	r29, 0x3e	; 62
    207c:	2e 97       	sbiw	r28, 0x0e	; 14
    207e:	0f b6       	in	r0, 0x3f	; 63
    2080:	f8 94       	cli
    2082:	de bf       	out	0x3e, r29	; 62
    2084:	0f be       	out	0x3f, r0	; 63
    2086:	cd bf       	out	0x3d, r28	; 61
    2088:	0e 89       	ldd	r16, Y+22	; 0x16
    208a:	1f 89       	ldd	r17, Y+23	; 0x17
    208c:	86 e0       	ldi	r24, 0x06	; 6
    208e:	8c 83       	std	Y+4, r24	; 0x04
    2090:	1a 83       	std	Y+2, r17	; 0x02
    2092:	09 83       	std	Y+1, r16	; 0x01
    2094:	8f ef       	ldi	r24, 0xFF	; 255
    2096:	9f e7       	ldi	r25, 0x7F	; 127
    2098:	9e 83       	std	Y+6, r25	; 0x06
    209a:	8d 83       	std	Y+5, r24	; 0x05
    209c:	ae 01       	movw	r20, r28
    209e:	46 5e       	subi	r20, 0xE6	; 230
    20a0:	5f 4f       	sbci	r21, 0xFF	; 255
    20a2:	68 8d       	ldd	r22, Y+24	; 0x18
    20a4:	79 8d       	ldd	r23, Y+25	; 0x19
    20a6:	ce 01       	movw	r24, r28
    20a8:	01 96       	adiw	r24, 0x01	; 1
    20aa:	e2 da       	rcall	.-2620   	; 0x1670 <vfprintf>
    20ac:	ef 81       	ldd	r30, Y+7	; 0x07
    20ae:	f8 85       	ldd	r31, Y+8	; 0x08
    20b0:	e0 0f       	add	r30, r16
    20b2:	f1 1f       	adc	r31, r17
    20b4:	10 82       	st	Z, r1
    20b6:	2e 96       	adiw	r28, 0x0e	; 14
    20b8:	0f b6       	in	r0, 0x3f	; 63
    20ba:	f8 94       	cli
    20bc:	de bf       	out	0x3e, r29	; 62
    20be:	0f be       	out	0x3f, r0	; 63
    20c0:	cd bf       	out	0x3d, r28	; 61
    20c2:	df 91       	pop	r29
    20c4:	cf 91       	pop	r28
    20c6:	1f 91       	pop	r17
    20c8:	0f 91       	pop	r16
    20ca:	08 95       	ret

000020cc <__ultoa_invert>:
    20cc:	fa 01       	movw	r30, r20
    20ce:	aa 27       	eor	r26, r26
    20d0:	28 30       	cpi	r18, 0x08	; 8
    20d2:	51 f1       	breq	.+84     	; 0x2128 <__ultoa_invert+0x5c>
    20d4:	20 31       	cpi	r18, 0x10	; 16
    20d6:	81 f1       	breq	.+96     	; 0x2138 <__ultoa_invert+0x6c>
    20d8:	e8 94       	clt
    20da:	6f 93       	push	r22
    20dc:	6e 7f       	andi	r22, 0xFE	; 254
    20de:	6e 5f       	subi	r22, 0xFE	; 254
    20e0:	7f 4f       	sbci	r23, 0xFF	; 255
    20e2:	8f 4f       	sbci	r24, 0xFF	; 255
    20e4:	9f 4f       	sbci	r25, 0xFF	; 255
    20e6:	af 4f       	sbci	r26, 0xFF	; 255
    20e8:	b1 e0       	ldi	r27, 0x01	; 1
    20ea:	3e d0       	rcall	.+124    	; 0x2168 <__ultoa_invert+0x9c>
    20ec:	b4 e0       	ldi	r27, 0x04	; 4
    20ee:	3c d0       	rcall	.+120    	; 0x2168 <__ultoa_invert+0x9c>
    20f0:	67 0f       	add	r22, r23
    20f2:	78 1f       	adc	r23, r24
    20f4:	89 1f       	adc	r24, r25
    20f6:	9a 1f       	adc	r25, r26
    20f8:	a1 1d       	adc	r26, r1
    20fa:	68 0f       	add	r22, r24
    20fc:	79 1f       	adc	r23, r25
    20fe:	8a 1f       	adc	r24, r26
    2100:	91 1d       	adc	r25, r1
    2102:	a1 1d       	adc	r26, r1
    2104:	6a 0f       	add	r22, r26
    2106:	71 1d       	adc	r23, r1
    2108:	81 1d       	adc	r24, r1
    210a:	91 1d       	adc	r25, r1
    210c:	a1 1d       	adc	r26, r1
    210e:	20 d0       	rcall	.+64     	; 0x2150 <__ultoa_invert+0x84>
    2110:	09 f4       	brne	.+2      	; 0x2114 <__ultoa_invert+0x48>
    2112:	68 94       	set
    2114:	3f 91       	pop	r19
    2116:	2a e0       	ldi	r18, 0x0A	; 10
    2118:	26 9f       	mul	r18, r22
    211a:	11 24       	eor	r1, r1
    211c:	30 19       	sub	r19, r0
    211e:	30 5d       	subi	r19, 0xD0	; 208
    2120:	31 93       	st	Z+, r19
    2122:	de f6       	brtc	.-74     	; 0x20da <__ultoa_invert+0xe>
    2124:	cf 01       	movw	r24, r30
    2126:	08 95       	ret
    2128:	46 2f       	mov	r20, r22
    212a:	47 70       	andi	r20, 0x07	; 7
    212c:	40 5d       	subi	r20, 0xD0	; 208
    212e:	41 93       	st	Z+, r20
    2130:	b3 e0       	ldi	r27, 0x03	; 3
    2132:	0f d0       	rcall	.+30     	; 0x2152 <__ultoa_invert+0x86>
    2134:	c9 f7       	brne	.-14     	; 0x2128 <__ultoa_invert+0x5c>
    2136:	f6 cf       	rjmp	.-20     	; 0x2124 <__ultoa_invert+0x58>
    2138:	46 2f       	mov	r20, r22
    213a:	4f 70       	andi	r20, 0x0F	; 15
    213c:	40 5d       	subi	r20, 0xD0	; 208
    213e:	4a 33       	cpi	r20, 0x3A	; 58
    2140:	18 f0       	brcs	.+6      	; 0x2148 <__ultoa_invert+0x7c>
    2142:	49 5d       	subi	r20, 0xD9	; 217
    2144:	31 fd       	sbrc	r19, 1
    2146:	40 52       	subi	r20, 0x20	; 32
    2148:	41 93       	st	Z+, r20
    214a:	02 d0       	rcall	.+4      	; 0x2150 <__ultoa_invert+0x84>
    214c:	a9 f7       	brne	.-22     	; 0x2138 <__ultoa_invert+0x6c>
    214e:	ea cf       	rjmp	.-44     	; 0x2124 <__ultoa_invert+0x58>
    2150:	b4 e0       	ldi	r27, 0x04	; 4
    2152:	a6 95       	lsr	r26
    2154:	97 95       	ror	r25
    2156:	87 95       	ror	r24
    2158:	77 95       	ror	r23
    215a:	67 95       	ror	r22
    215c:	ba 95       	dec	r27
    215e:	c9 f7       	brne	.-14     	; 0x2152 <__ultoa_invert+0x86>
    2160:	00 97       	sbiw	r24, 0x00	; 0
    2162:	61 05       	cpc	r22, r1
    2164:	71 05       	cpc	r23, r1
    2166:	08 95       	ret
    2168:	9b 01       	movw	r18, r22
    216a:	ac 01       	movw	r20, r24
    216c:	0a 2e       	mov	r0, r26
    216e:	06 94       	lsr	r0
    2170:	57 95       	ror	r21
    2172:	47 95       	ror	r20
    2174:	37 95       	ror	r19
    2176:	27 95       	ror	r18
    2178:	ba 95       	dec	r27
    217a:	c9 f7       	brne	.-14     	; 0x216e <__ultoa_invert+0xa2>
    217c:	62 0f       	add	r22, r18
    217e:	73 1f       	adc	r23, r19
    2180:	84 1f       	adc	r24, r20
    2182:	95 1f       	adc	r25, r21
    2184:	a0 1d       	adc	r26, r0
    2186:	08 95       	ret

00002188 <strrev>:
    2188:	dc 01       	movw	r26, r24
    218a:	fc 01       	movw	r30, r24
    218c:	67 2f       	mov	r22, r23
    218e:	71 91       	ld	r23, Z+
    2190:	77 23       	and	r23, r23
    2192:	e1 f7       	brne	.-8      	; 0x218c <strrev+0x4>
    2194:	32 97       	sbiw	r30, 0x02	; 2
    2196:	04 c0       	rjmp	.+8      	; 0x21a0 <strrev+0x18>
    2198:	7c 91       	ld	r23, X
    219a:	6d 93       	st	X+, r22
    219c:	70 83       	st	Z, r23
    219e:	62 91       	ld	r22, -Z
    21a0:	ae 17       	cp	r26, r30
    21a2:	bf 07       	cpc	r27, r31
    21a4:	c8 f3       	brcs	.-14     	; 0x2198 <strrev+0x10>
    21a6:	08 95       	ret

000021a8 <_exit>:
    21a8:	f8 94       	cli

000021aa <__stop_program>:
    21aa:	ff cf       	rjmp	.-2      	; 0x21aa <__stop_program>
